; Listing generated by Microsoft (R) Optimizing Compiler Version 19.00.23506.0 

	TITLE	D:\scottsdocs\sourcecode\twinsouls\code\maingame.cpp
	.686P
	.XMM
	include listing.inc
	.model	flat

INCLUDELIB MSVCRTD
INCLUDELIB OLDNAMES

PUBLIC	??_H@YGXPAXIIP6EPAX0@Z@Z			; `vector constructor iterator'
PUBLIC	?__empty_global_delete@@YAXPAX@Z		; __empty_global_delete
PUBLIC	?__empty_global_delete@@YAXPAXI@Z		; __empty_global_delete
PUBLIC	___local_stdio_printf_options
PUBLIC	??$__vcrt_va_start_verify_argument_type@QBD@@YAXXZ ; __vcrt_va_start_verify_argument_type<char const * const>
PUBLIC	__vsprintf_s_l
PUBLIC	__vscprintf_l
PUBLIC	_sprintf_s
PUBLIC	__scprintf
PUBLIC	??2@YAPAXIPAX@Z					; operator new
PUBLIC	?length@?$char_traits@D@std@@SAIPBD@Z		; std::char_traits<char>::length
PUBLIC	?copy@?$char_traits@D@std@@SAPADPADPBDI@Z	; std::char_traits<char>::copy
PUBLIC	?move@?$char_traits@D@std@@SAPADPADPBDI@Z	; std::char_traits<char>::move
PUBLIC	?assign@?$char_traits@D@std@@SAPADPADID@Z	; std::char_traits<char>::assign
PUBLIC	?assign@?$char_traits@D@std@@SAXAADABD@Z	; std::char_traits<char>::assign
PUBLIC	?eq_int_type@?$char_traits@D@std@@SA_NABH0@Z	; std::char_traits<char>::eq_int_type
PUBLIC	?eof@?$char_traits@D@std@@SAHXZ			; std::char_traits<char>::eof
PUBLIC	??0_Container_proxy@std@@QAE@XZ			; std::_Container_proxy::_Container_proxy
PUBLIC	??0_Container_base12@std@@QAE@XZ		; std::_Container_base12::_Container_base12
PUBLIC	??1_Container_base12@std@@QAE@XZ		; std::_Container_base12::~_Container_base12
PUBLIC	?_Orphan_all@_Container_base12@std@@QAEXXZ	; std::_Container_base12::_Orphan_all
PUBLIC	?_Allocate@std@@YAPAXII_N@Z			; std::_Allocate
PUBLIC	?_Deallocate@std@@YAXPAXII@Z			; std::_Deallocate
PUBLIC	??0?$allocator@D@std@@QAE@XZ			; std::allocator<char>::allocator<char>
PUBLIC	??0?$allocator@D@std@@QAE@ABV01@@Z		; std::allocator<char>::allocator<char>
PUBLIC	?deallocate@?$allocator@D@std@@QAEXPADI@Z	; std::allocator<char>::deallocate
PUBLIC	?allocate@?$allocator@D@std@@QAEPADI@Z		; std::allocator<char>::allocate
PUBLIC	?max_size@?$allocator@D@std@@QBEIXZ		; std::allocator<char>::max_size
PUBLIC	?max_size@?$allocator_traits@V?$allocator@D@std@@@std@@SAIABV?$allocator@D@2@@Z ; std::allocator_traits<std::allocator<char> >::max_size
PUBLIC	??0?$_Wrap_alloc@V?$allocator@D@std@@@std@@QAE@ABV?$allocator@D@1@@Z ; std::_Wrap_alloc<std::allocator<char> >::_Wrap_alloc<std::allocator<char> >
PUBLIC	?allocate@?$_Wrap_alloc@V?$allocator@D@std@@@std@@QAEPADI@Z ; std::_Wrap_alloc<std::allocator<char> >::allocate
PUBLIC	?deallocate@?$_Wrap_alloc@V?$allocator@D@std@@@std@@QAEXPADI@Z ; std::_Wrap_alloc<std::allocator<char> >::deallocate
PUBLIC	?max_size@?$_Wrap_alloc@V?$allocator@D@std@@@std@@QBEIU_Nil@2@@Z ; std::_Wrap_alloc<std::allocator<char> >::max_size
PUBLIC	??0?$_String_val@U?$_Simple_types@D@std@@@std@@QAE@XZ ; std::_String_val<std::_Simple_types<char> >::_String_val<std::_Simple_types<char> >
PUBLIC	?_Myptr@?$_String_val@U?$_Simple_types@D@std@@@std@@QAEPADXZ ; std::_String_val<std::_Simple_types<char> >::_Myptr
PUBLIC	?_Myptr@?$_String_val@U?$_Simple_types@D@std@@@std@@QBEPBDXZ ; std::_String_val<std::_Simple_types<char> >::_Myptr
PUBLIC	??1?$_String_val@U?$_Simple_types@D@std@@@std@@QAE@XZ ; std::_String_val<std::_Simple_types<char> >::~_String_val<std::_Simple_types<char> >
PUBLIC	?_Myptr@?$_String_alloc@U?$_String_base_types@DV?$allocator@D@std@@@std@@@std@@QAEPADXZ ; std::_String_alloc<std::_String_base_types<char,std::allocator<char> > >::_Myptr
PUBLIC	?_Myptr@?$_String_alloc@U?$_String_base_types@DV?$allocator@D@std@@@std@@@std@@QBEPBDXZ ; std::_String_alloc<std::_String_base_types<char,std::allocator<char> > >::_Myptr
PUBLIC	??0?$_String_alloc@U?$_String_base_types@DV?$allocator@D@std@@@std@@@std@@QAE@ABV?$allocator@D@1@@Z ; std::_String_alloc<std::_String_base_types<char,std::allocator<char> > >::_String_alloc<std::_String_base_types<char,std::allocator<char> > >
PUBLIC	??0?$_String_alloc@U?$_String_base_types@DV?$allocator@D@std@@@std@@@std@@QAE@$$QAV?$allocator@D@1@@Z ; std::_String_alloc<std::_String_base_types<char,std::allocator<char> > >::_String_alloc<std::_String_base_types<char,std::allocator<char> > >
PUBLIC	??1?$_String_alloc@U?$_String_base_types@DV?$allocator@D@std@@@std@@@std@@QAE@XZ ; std::_String_alloc<std::_String_base_types<char,std::allocator<char> > >::~_String_alloc<std::_String_base_types<char,std::allocator<char> > >
PUBLIC	?_Alloc_proxy@?$_String_alloc@U?$_String_base_types@DV?$allocator@D@std@@@std@@@std@@QAEXXZ ; std::_String_alloc<std::_String_base_types<char,std::allocator<char> > >::_Alloc_proxy
PUBLIC	?_Free_proxy@?$_String_alloc@U?$_String_base_types@DV?$allocator@D@std@@@std@@@std@@QAEXXZ ; std::_String_alloc<std::_String_base_types<char,std::allocator<char> > >::_Free_proxy
PUBLIC	?_Myproxy@?$_String_alloc@U?$_String_base_types@DV?$allocator@D@std@@@std@@@std@@QAEAAPAU_Container_proxy@2@XZ ; std::_String_alloc<std::_String_base_types<char,std::allocator<char> > >::_Myproxy
PUBLIC	?_Orphan_all@?$_String_alloc@U?$_String_base_types@DV?$allocator@D@std@@@std@@@std@@QAEXXZ ; std::_String_alloc<std::_String_base_types<char,std::allocator<char> > >::_Orphan_all
PUBLIC	?_Getal@?$_String_alloc@U?$_String_base_types@DV?$allocator@D@std@@@std@@@std@@QAEAAU?$_Wrap_alloc@V?$allocator@D@std@@@2@XZ ; std::_String_alloc<std::_String_base_types<char,std::allocator<char> > >::_Getal
PUBLIC	?_Getal@?$_String_alloc@U?$_String_base_types@DV?$allocator@D@std@@@std@@@std@@QBEABU?$_Wrap_alloc@V?$allocator@D@std@@@2@XZ ; std::_String_alloc<std::_String_base_types<char,std::allocator<char> > >::_Getal
PUBLIC	?_Get_data@?$_String_alloc@U?$_String_base_types@DV?$allocator@D@std@@@std@@@std@@QAEAAV?$_String_val@U?$_Simple_types@D@std@@@2@XZ ; std::_String_alloc<std::_String_base_types<char,std::allocator<char> > >::_Get_data
PUBLIC	?_Get_data@?$_String_alloc@U?$_String_base_types@DV?$allocator@D@std@@@std@@@std@@QBEABV?$_String_val@U?$_Simple_types@D@std@@@2@XZ ; std::_String_alloc<std::_String_base_types<char,std::allocator<char> > >::_Get_data
PUBLIC	?_Bx@?$_String_alloc@U?$_String_base_types@DV?$allocator@D@std@@@std@@@std@@QAEAAT_Bxty@?$_String_val@U?$_Simple_types@D@std@@@2@XZ ; std::_String_alloc<std::_String_base_types<char,std::allocator<char> > >::_Bx
PUBLIC	?_Mysize@?$_String_alloc@U?$_String_base_types@DV?$allocator@D@std@@@std@@@std@@QAEAAIXZ ; std::_String_alloc<std::_String_base_types<char,std::allocator<char> > >::_Mysize
PUBLIC	?_Mysize@?$_String_alloc@U?$_String_base_types@DV?$allocator@D@std@@@std@@@std@@QBEABIXZ ; std::_String_alloc<std::_String_base_types<char,std::allocator<char> > >::_Mysize
PUBLIC	?_Myres@?$_String_alloc@U?$_String_base_types@DV?$allocator@D@std@@@std@@@std@@QAEAAIXZ ; std::_String_alloc<std::_String_base_types<char,std::allocator<char> > >::_Myres
PUBLIC	?_Get_first@?$_Compressed_pair@U?$_Wrap_alloc@V?$allocator@D@std@@@std@@V?$_String_val@U?$_Simple_types@D@std@@@2@$00@std@@QAEAAU?$_Wrap_alloc@V?$allocator@D@std@@@2@XZ ; std::_Compressed_pair<std::_Wrap_alloc<std::allocator<char> >,std::_String_val<std::_Simple_types<char> >,1>::_Get_first
PUBLIC	?_Get_first@?$_Compressed_pair@U?$_Wrap_alloc@V?$allocator@D@std@@@std@@V?$_String_val@U?$_Simple_types@D@std@@@2@$00@std@@QBEABU?$_Wrap_alloc@V?$allocator@D@std@@@2@XZ ; std::_Compressed_pair<std::_Wrap_alloc<std::allocator<char> >,std::_String_val<std::_Simple_types<char> >,1>::_Get_first
PUBLIC	?_Get_second@?$_Compressed_pair@U?$_Wrap_alloc@V?$allocator@D@std@@@std@@V?$_String_val@U?$_Simple_types@D@std@@@2@$00@std@@QAEAAV?$_String_val@U?$_Simple_types@D@std@@@2@XZ ; std::_Compressed_pair<std::_Wrap_alloc<std::allocator<char> >,std::_String_val<std::_Simple_types<char> >,1>::_Get_second
PUBLIC	?_Get_second@?$_Compressed_pair@U?$_Wrap_alloc@V?$allocator@D@std@@@std@@V?$_String_val@U?$_Simple_types@D@std@@@2@$00@std@@QBEABV?$_String_val@U?$_Simple_types@D@std@@@2@XZ ; std::_Compressed_pair<std::_Wrap_alloc<std::allocator<char> >,std::_String_val<std::_Simple_types<char> >,1>::_Get_second
PUBLIC	??1?$_Compressed_pair@U?$_Wrap_alloc@V?$allocator@D@std@@@std@@V?$_String_val@U?$_Simple_types@D@std@@@2@$00@std@@QAE@XZ ; std::_Compressed_pair<std::_Wrap_alloc<std::allocator<char> >,std::_String_val<std::_Simple_types<char> >,1>::~_Compressed_pair<std::_Wrap_alloc<std::allocator<char> >,std::_String_val<std::_Simple_types<char> >,1>
PUBLIC	??0?$basic_string@DU?$char_traits@D@std@@V?$allocator@D@2@@std@@QAE@PBD@Z ; std::basic_string<char,std::char_traits<char>,std::allocator<char> >::basic_string<char,std::char_traits<char>,std::allocator<char> >
PUBLIC	??0?$basic_string@DU?$char_traits@D@std@@V?$allocator@D@2@@std@@QAE@ID@Z ; std::basic_string<char,std::char_traits<char>,std::allocator<char> >::basic_string<char,std::char_traits<char>,std::allocator<char> >
PUBLIC	??0?$basic_string@DU?$char_traits@D@std@@V?$allocator@D@2@@std@@QAE@$$QAV01@@Z ; std::basic_string<char,std::char_traits<char>,std::allocator<char> >::basic_string<char,std::char_traits<char>,std::allocator<char> >
PUBLIC	?_Assign_rv@?$basic_string@DU?$char_traits@D@std@@V?$allocator@D@2@@std@@QAEX$$QAV12@@Z ; std::basic_string<char,std::char_traits<char>,std::allocator<char> >::_Assign_rv
PUBLIC	??1?$basic_string@DU?$char_traits@D@std@@V?$allocator@D@2@@std@@QAE@XZ ; std::basic_string<char,std::char_traits<char>,std::allocator<char> >::~basic_string<char,std::char_traits<char>,std::allocator<char> >
PUBLIC	?append@?$basic_string@DU?$char_traits@D@std@@V?$allocator@D@2@@std@@QAEAAV12@ID@Z ; std::basic_string<char,std::char_traits<char>,std::allocator<char> >::append
PUBLIC	?assign@?$basic_string@DU?$char_traits@D@std@@V?$allocator@D@2@@std@@QAEAAV12@ABV12@II@Z ; std::basic_string<char,std::char_traits<char>,std::allocator<char> >::assign
PUBLIC	?assign@?$basic_string@DU?$char_traits@D@std@@V?$allocator@D@2@@std@@QAEAAV12@PBDI@Z ; std::basic_string<char,std::char_traits<char>,std::allocator<char> >::assign
PUBLIC	?assign@?$basic_string@DU?$char_traits@D@std@@V?$allocator@D@2@@std@@QAEAAV12@PBD@Z ; std::basic_string<char,std::char_traits<char>,std::allocator<char> >::assign
PUBLIC	?assign@?$basic_string@DU?$char_traits@D@std@@V?$allocator@D@2@@std@@QAEAAV12@ID@Z ; std::basic_string<char,std::char_traits<char>,std::allocator<char> >::assign
PUBLIC	?insert@?$basic_string@DU?$char_traits@D@std@@V?$allocator@D@2@@std@@QAEAAV12@IABV12@II@Z ; std::basic_string<char,std::char_traits<char>,std::allocator<char> >::insert
PUBLIC	?insert@?$basic_string@DU?$char_traits@D@std@@V?$allocator@D@2@@std@@QAEAAV12@IPBDI@Z ; std::basic_string<char,std::char_traits<char>,std::allocator<char> >::insert
PUBLIC	?insert@?$basic_string@DU?$char_traits@D@std@@V?$allocator@D@2@@std@@QAEAAV12@IPBD@Z ; std::basic_string<char,std::char_traits<char>,std::allocator<char> >::insert
PUBLIC	?erase@?$basic_string@DU?$char_traits@D@std@@V?$allocator@D@2@@std@@QAEAAV12@I@Z ; std::basic_string<char,std::char_traits<char>,std::allocator<char> >::erase
PUBLIC	?erase@?$basic_string@DU?$char_traits@D@std@@V?$allocator@D@2@@std@@QAEAAV12@II@Z ; std::basic_string<char,std::char_traits<char>,std::allocator<char> >::erase
PUBLIC	??A?$basic_string@DU?$char_traits@D@std@@V?$allocator@D@2@@std@@QAEAADI@Z ; std::basic_string<char,std::char_traits<char>,std::allocator<char> >::operator[]
PUBLIC	?c_str@?$basic_string@DU?$char_traits@D@std@@V?$allocator@D@2@@std@@QBEPBDXZ ; std::basic_string<char,std::char_traits<char>,std::allocator<char> >::c_str
PUBLIC	?size@?$basic_string@DU?$char_traits@D@std@@V?$allocator@D@2@@std@@QBEIXZ ; std::basic_string<char,std::char_traits<char>,std::allocator<char> >::size
PUBLIC	?max_size@?$basic_string@DU?$char_traits@D@std@@V?$allocator@D@2@@std@@QBEIXZ ; std::basic_string<char,std::char_traits<char>,std::allocator<char> >::max_size
PUBLIC	?resize@?$basic_string@DU?$char_traits@D@std@@V?$allocator@D@2@@std@@QAEXI@Z ; std::basic_string<char,std::char_traits<char>,std::allocator<char> >::resize
PUBLIC	?resize@?$basic_string@DU?$char_traits@D@std@@V?$allocator@D@2@@std@@QAEXID@Z ; std::basic_string<char,std::char_traits<char>,std::allocator<char> >::resize
PUBLIC	?_Chassign@?$basic_string@DU?$char_traits@D@std@@V?$allocator@D@2@@std@@QAEXIID@Z ; std::basic_string<char,std::char_traits<char>,std::allocator<char> >::_Chassign
PUBLIC	?_Copy@?$basic_string@DU?$char_traits@D@std@@V?$allocator@D@2@@std@@QAEXII@Z ; std::basic_string<char,std::char_traits<char>,std::allocator<char> >::_Copy
PUBLIC	?_Eos@?$basic_string@DU?$char_traits@D@std@@V?$allocator@D@2@@std@@QAEXI@Z ; std::basic_string<char,std::char_traits<char>,std::allocator<char> >::_Eos
PUBLIC	?_Grow@?$basic_string@DU?$char_traits@D@std@@V?$allocator@D@2@@std@@QAE_NI_N@Z ; std::basic_string<char,std::char_traits<char>,std::allocator<char> >::_Grow
PUBLIC	?_Inside@?$basic_string@DU?$char_traits@D@std@@V?$allocator@D@2@@std@@QAE_NPBD@Z ; std::basic_string<char,std::char_traits<char>,std::allocator<char> >::_Inside
PUBLIC	?_Tidy@?$basic_string@DU?$char_traits@D@std@@V?$allocator@D@2@@std@@QAEX_NI@Z ; std::basic_string<char,std::char_traits<char>,std::allocator<char> >::_Tidy
PUBLIC	?_Xlen@?$basic_string@DU?$char_traits@D@std@@V?$allocator@D@2@@std@@QBEXXZ ; std::basic_string<char,std::char_traits<char>,std::allocator<char> >::_Xlen
PUBLIC	?_Xran@?$basic_string@DU?$char_traits@D@std@@V?$allocator@D@2@@std@@QBEXXZ ; std::basic_string<char,std::char_traits<char>,std::allocator<char> >::_Xran
PUBLIC	?to_string@std@@YA?AV?$basic_string@DU?$char_traits@D@std@@V?$allocator@D@2@@1@N@Z ; std::to_string
PUBLIC	??$_Floating_to_string@N@std@@YA?AV?$basic_string@DU?$char_traits@D@std@@V?$allocator@D@2@@0@PBDN@Z ; std::_Floating_to_string<double>
PUBLIC	??0?$tvec3@M$0A@@glm@@QAE@XZ			; glm::tvec3<float,0>::tvec3<float,0>
PUBLIC	??0?$tvec3@M$0A@@glm@@QAE@ABM00@Z		; glm::tvec3<float,0>::tvec3<float,0>
PUBLIC	??_GEventListener@@QAEPAXI@Z			; EventListener::`scalar deleting destructor'
PUBLIC	??_GPlatform@@QAEPAXI@Z				; Platform::`scalar deleting destructor'
PUBLIC	?__autoclassinit2@ResourceManager@@QAEXI@Z	; ResourceManager::__autoclassinit2
PUBLIC	??_GGraphicsController@@QAEPAXI@Z		; GraphicsController::`scalar deleting destructor'
PUBLIC	??_GClock@@QAEPAXI@Z				; Clock::`scalar deleting destructor'
PUBLIC	??0Box@@QAE@XZ					; Box::Box
PUBLIC	??0MainGame@@QAE@XZ				; MainGame::MainGame
PUBLIC	??1MainGame@@QAE@XZ				; MainGame::~MainGame
PUBLIC	?Run@MainGame@@QAEXXZ				; MainGame::Run
PUBLIC	?EventAction@MainGame@@AAEXXZ			; MainGame::EventAction
PUBLIC	??$?HDU?$char_traits@D@std@@V?$allocator@D@1@@std@@YA?AV?$basic_string@DU?$char_traits@D@std@@V?$allocator@D@2@@0@PBD$$QAV10@@Z ; std::operator+<char,std::char_traits<char>,std::allocator<char> >
PUBLIC	??$?6DU?$char_traits@D@std@@V?$allocator@D@1@@std@@YAAAV?$basic_ostream@DU?$char_traits@D@std@@@0@AAV10@ABV?$basic_string@DU?$char_traits@D@std@@V?$allocator@D@2@@0@@Z ; std::operator<<<char,std::char_traits<char>,std::allocator<char> >
PUBLIC	??$endl@DU?$char_traits@D@std@@@std@@YAAAV?$basic_ostream@DU?$char_traits@D@std@@@0@AAV10@@Z ; std::endl<char,std::char_traits<char> >
PUBLIC	??$_Debug_pointer@$$CBD@std@@YAXPBDPB_WI@Z	; std::_Debug_pointer<char const >
PUBLIC	??$move@AAU?$_Wrap_alloc@V?$allocator@D@std@@@std@@@std@@YA$$QAU?$_Wrap_alloc@V?$allocator@D@std@@@0@AAU10@@Z ; std::move<std::_Wrap_alloc<std::allocator<char> > &>
PUBLIC	??$forward@V?$basic_string@DU?$char_traits@D@std@@V?$allocator@D@2@@std@@@std@@YA$$QAV?$basic_string@DU?$char_traits@D@std@@V?$allocator@D@2@@0@AAV10@@Z ; std::forward<std::basic_string<char,std::char_traits<char>,std::allocator<char> > >
PUBLIC	??$move@AAV?$allocator@D@std@@@std@@YA$$QAV?$allocator@D@0@AAV10@@Z ; std::move<std::allocator<char> &>
PUBLIC	??$?0V?$allocator@D@std@@$$V@?$_Compressed_pair@U?$_Wrap_alloc@V?$allocator@D@std@@@std@@V?$_String_val@U?$_Simple_types@D@std@@@2@$00@std@@QAE@U_One_then_variadic_args_t@1@$$QAV?$allocator@D@1@@Z ; std::_Compressed_pair<std::_Wrap_alloc<std::allocator<char> >,std::_String_val<std::_Simple_types<char> >,1>::_Compressed_pair<std::_Wrap_alloc<std::allocator<char> >,std::_String_val<std::_Simple_types<char> >,1><std::allocator<char> >
PUBLIC	??$?0ABV?$allocator@D@std@@$$V@?$_Compressed_pair@U?$_Wrap_alloc@V?$allocator@D@std@@@std@@V?$_String_val@U?$_Simple_types@D@std@@@2@$00@std@@QAE@U_One_then_variadic_args_t@1@ABV?$allocator@D@1@@Z ; std::_Compressed_pair<std::_Wrap_alloc<std::allocator<char> >,std::_String_val<std::_Simple_types<char> >,1>::_Compressed_pair<std::_Wrap_alloc<std::allocator<char> >,std::_String_val<std::_Simple_types<char> >,1><std::allocator<char> const &>
PUBLIC	??$destroy@PAD@?$_Wrap_alloc@V?$allocator@D@std@@@std@@QAEXPAPAD@Z ; std::_Wrap_alloc<std::allocator<char> >::destroy<char *>
PUBLIC	??$addressof@D@std@@YAPADAAD@Z			; std::addressof<char>
PUBLIC	??$_Debug_pointer_if@$$CBD@std@@YAX_NPBDPB_WI@Z	; std::_Debug_pointer_if<char const >
PUBLIC	??$construct@PADAAPAD@?$_Wrap_alloc@V?$allocator@D@std@@@std@@QAEXPAPADAAPAD@Z ; std::_Wrap_alloc<std::allocator<char> >::construct<char *,char * &>
PUBLIC	?deallocate@?$allocator@U_Container_proxy@std@@@std@@QAEXPAU_Container_proxy@2@I@Z ; std::allocator<std::_Container_proxy>::deallocate
PUBLIC	?allocate@?$allocator@U_Container_proxy@std@@@std@@QAEPAU_Container_proxy@2@I@Z ; std::allocator<std::_Container_proxy>::allocate
PUBLIC	?allocate@?$_Wrap_alloc@V?$allocator@U_Container_proxy@std@@@std@@@std@@QAEPAU_Container_proxy@2@I@Z ; std::_Wrap_alloc<std::allocator<std::_Container_proxy> >::allocate
PUBLIC	?deallocate@?$_Wrap_alloc@V?$allocator@U_Container_proxy@std@@@std@@@std@@QAEXPAU_Container_proxy@2@I@Z ; std::_Wrap_alloc<std::allocator<std::_Container_proxy> >::deallocate
PUBLIC	??$destroy@U_Container_proxy@std@@@?$_Wrap_alloc@V?$allocator@U_Container_proxy@std@@@std@@@std@@QAEXPAU_Container_proxy@1@@Z ; std::_Wrap_alloc<std::allocator<std::_Container_proxy> >::destroy<std::_Container_proxy>
PUBLIC	??$construct@U_Container_proxy@std@@U12@@?$_Wrap_alloc@V?$allocator@U_Container_proxy@std@@@std@@@std@@QAEXPAU_Container_proxy@1@$$QAU21@@Z ; std::_Wrap_alloc<std::allocator<std::_Container_proxy> >::construct<std::_Container_proxy,std::_Container_proxy>
PUBLIC	??$?0U?$_Wrap_alloc@V?$allocator@D@std@@@std@@@?$_Wrap_alloc@V?$allocator@U_Container_proxy@std@@@std@@@std@@QAE@AAU?$_Wrap_alloc@V?$allocator@D@std@@@1@@Z ; std::_Wrap_alloc<std::allocator<std::_Container_proxy> >::_Wrap_alloc<std::allocator<std::_Container_proxy> ><std::_Wrap_alloc<std::allocator<char> > >
PUBLIC	??$?0D@?$allocator@U_Container_proxy@std@@@std@@QAE@ABV?$allocator@D@1@@Z ; std::allocator<std::_Container_proxy>::allocator<std::_Container_proxy><char>
PUBLIC	??$move@AAV?$basic_string@DU?$char_traits@D@std@@V?$allocator@D@2@@std@@@std@@YA$$QAV?$basic_string@DU?$char_traits@D@std@@V?$allocator@D@2@@0@AAV10@@Z ; std::move<std::basic_string<char,std::char_traits<char>,std::allocator<char> > &>
PUBLIC	??0_Sentry_base@?$basic_ostream@DU?$char_traits@D@std@@@std@@QAE@AAV12@@Z ; std::basic_ostream<char,std::char_traits<char> >::_Sentry_base::_Sentry_base
PUBLIC	??1_Sentry_base@?$basic_ostream@DU?$char_traits@D@std@@@std@@QAE@XZ ; std::basic_ostream<char,std::char_traits<char> >::_Sentry_base::~_Sentry_base
PUBLIC	??0sentry@?$basic_ostream@DU?$char_traits@D@std@@@std@@QAE@AAV12@@Z ; std::basic_ostream<char,std::char_traits<char> >::sentry::sentry
PUBLIC	??1sentry@?$basic_ostream@DU?$char_traits@D@std@@@std@@QAE@XZ ; std::basic_ostream<char,std::char_traits<char> >::sentry::~sentry
PUBLIC	??Bsentry@?$basic_ostream@DU?$char_traits@D@std@@@std@@QBE_NXZ ; std::basic_ostream<char,std::char_traits<char> >::sentry::operator bool
PUBLIC	??$forward@V?$allocator@D@std@@@std@@YA$$QAV?$allocator@D@0@AAV10@@Z ; std::forward<std::allocator<char> >
PUBLIC	??$forward@ABV?$allocator@D@std@@@std@@YAABV?$allocator@D@0@ABV10@@Z ; std::forward<std::allocator<char> const &>
PUBLIC	??$destroy@PAD@?$allocator_traits@V?$allocator@D@std@@@std@@SAXAAV?$allocator@D@1@PAPAD@Z ; std::allocator_traits<std::allocator<char> >::destroy<char *>
PUBLIC	??$_Addressof@D@std@@YAPADAADU?$integral_constant@_N$0A@@0@@Z ; std::_Addressof<char>
PUBLIC	??$forward@AAPAD@std@@YAAAPADAAPAD@Z		; std::forward<char * &>
PUBLIC	??$construct@PADAAPAD@?$allocator_traits@V?$allocator@D@std@@@std@@SAXAAV?$allocator@D@1@PAPADAAPAD@Z ; std::allocator_traits<std::allocator<char> >::construct<char *,char * &>
PUBLIC	??$destroy@U_Container_proxy@std@@@?$allocator_traits@V?$allocator@U_Container_proxy@std@@@std@@@std@@SAXAAV?$allocator@U_Container_proxy@std@@@1@PAU_Container_proxy@1@@Z ; std::allocator_traits<std::allocator<std::_Container_proxy> >::destroy<std::_Container_proxy>
PUBLIC	??$forward@U_Container_proxy@std@@@std@@YA$$QAU_Container_proxy@0@AAU10@@Z ; std::forward<std::_Container_proxy>
PUBLIC	??$construct@U_Container_proxy@std@@U12@@?$allocator_traits@V?$allocator@U_Container_proxy@std@@@std@@@std@@SAXAAV?$allocator@U_Container_proxy@std@@@1@PAU_Container_proxy@1@$$QAU31@@Z ; std::allocator_traits<std::allocator<std::_Container_proxy> >::construct<std::_Container_proxy,std::_Container_proxy>
PUBLIC	??$destroy@PAD@?$allocator@D@std@@QAEXPAPAD@Z	; std::allocator<char>::destroy<char *>
PUBLIC	??$construct@PADAAPAD@?$allocator@D@std@@QAEXPAPADAAPAD@Z ; std::allocator<char>::construct<char *,char * &>
PUBLIC	??$destroy@U_Container_proxy@std@@@?$allocator@U_Container_proxy@std@@@std@@QAEXPAU_Container_proxy@1@@Z ; std::allocator<std::_Container_proxy>::destroy<std::_Container_proxy>
PUBLIC	??$construct@U_Container_proxy@std@@U12@@?$allocator@U_Container_proxy@std@@@std@@QAEXPAU_Container_proxy@1@$$QAU21@@Z ; std::allocator<std::_Container_proxy>::construct<std::_Container_proxy,std::_Container_proxy>
PUBLIC	?_OptionsStorage@?1??__local_stdio_printf_options@@9@4_KA ; `__local_stdio_printf_options'::`2'::_OptionsStorage
PUBLIC	?__LINE__Var@?0??_Allocate@std@@YAPAXII_N@Z@4JA	; `std::_Allocate'::`1'::__LINE__Var
PUBLIC	??_C@_0BE@LMNLACIC@_Ptr_container?5?$CB?$DN?50?$AA@ ; `string'
PUBLIC	??_C@_1DG@HGDKEBPG@?$AA?$CC?$AA_?$AAP?$AAt?$AAr?$AA_?$AAc?$AAo?$AAn?$AAt?$AAa?$AAi?$AAn?$AAe?$AAr?$AA?5?$AA?$CB?$AA?$DN?$AA?5?$AA0?$AA?$CC?$AA?5?$AA?$CG?$AA?$CG?$AA?5?$AA0?$AA?$AA@ ; `string'
PUBLIC	??_C@_17CNPHIMPH@?$AA?$CF?$AAl?$AAs?$AA?$AA@	; `string'
PUBLIC	??_C@_1EG@DJALBHDK@?$AAd?$AA?3?$AA?2?$AAa?$AAp?$AAp?$AAd?$AAa?$AAt?$AAa?$AA?2?$AAv?$AAs?$AAp?$AA?2?$AAv?$AAc?$AA?2?$AAi?$AAn?$AAc?$AAl?$AAu?$AAd?$AAe?$AA?2?$AAx?$AAm?$AAe?$AAm?$AAo?$AAr@ ; `string'
PUBLIC	??_C@_1BO@NKFMJPA@?$AAs?$AAt?$AAd?$AA?3?$AA?3?$AA_?$AAA?$AAl?$AAl?$AAo?$AAc?$AAa?$AAt?$AAe?$AA?$AA@ ; `string'
PUBLIC	??_C@_1CG@JNLFBNGN@?$AA?$CC?$AAi?$AAn?$AAv?$AAa?$AAl?$AAi?$AAd?$AA?5?$AAa?$AAr?$AAg?$AAu?$AAm?$AAe?$AAn?$AAt?$AA?$CC?$AA?$AA@ ; `string'
PUBLIC	??_C@_09GLJCAGLP@_Ptr?5?$CB?$DN?50?$AA@		; `string'
PUBLIC	??_C@_1CC@GKJLLHIM@?$AA?$CC?$AA_?$AAP?$AAt?$AAr?$AA?5?$AA?$CB?$AA?$DN?$AA?5?$AA0?$AA?$CC?$AA?5?$AA?$CG?$AA?$CG?$AA?5?$AA0?$AA?$AA@ ; `string'
PUBLIC	?__LINE__Var@?0??_Deallocate@std@@YAXPAXII@Z@4JA ; `std::_Deallocate'::`1'::__LINE__Var
PUBLIC	??_C@_0BN@HMCJOMKN@_Count?5?$DM?$DN?5?$CIsize_t?$CJ?$CI?91?$CJ?5?1?5_Sz?$AA@ ; `string'
PUBLIC	??_C@_1EI@MLOBABC@?$AA?$CC?$AA_?$AAC?$AAo?$AAu?$AAn?$AAt?$AA?5?$AA?$DM?$AA?$DN?$AA?5?$AA?$CI?$AAs?$AAi?$AAz?$AAe?$AA_?$AAt?$AA?$CJ?$AA?$CI?$AA?9?$AA1?$AA?$CJ?$AA?5?$AA?1?$AA?5?$AA_?$AAS?$AAz?$AA?$CC?$AA?5?$AA?$CG@ ; `string'
PUBLIC	??_C@_1CC@LOFJFFDB@?$AAs?$AAt?$AAd?$AA?3?$AA?3?$AA_?$AAD?$AAe?$AAa?$AAl?$AAl?$AAo?$AAc?$AAa?$AAt?$AAe?$AA?$AA@ ; `string'
PUBLIC	??_C@_0DD@GBGGGKGG@?$CI_Ptr_user?5?$CG?5?$CI_BIG_ALLOCATION_AL@ ; `string'
PUBLIC	??_C@_1HE@CDMBFOKC@?$AA?$CC?$AA?$CI?$AA_?$AAP?$AAt?$AAr?$AA_?$AAu?$AAs?$AAe?$AAr?$AA?5?$AA?$CG?$AA?5?$AA?$CI?$AA_?$AAB?$AAI?$AAG?$AA_?$AAA?$AAL?$AAL?$AAO?$AAC?$AAA?$AAT?$AAI?$AAO?$AAN?$AA_?$AAA@ ; `string'
PUBLIC	??_C@_0EI@NOJHEJCJ@reinterpret_cast?$DMuintptr_t?5?$CK?$DO?$CI_P@ ; `string'
PUBLIC	??_C@_1JO@EKLKIEHP@?$AA?$CC?$AAr?$AAe?$AAi?$AAn?$AAt?$AAe?$AAr?$AAp?$AAr?$AAe?$AAt?$AA_?$AAc?$AAa?$AAs?$AAt?$AA?$DM?$AAu?$AAi?$AAn?$AAt?$AAp?$AAt?$AAr?$AA_?$AAt?$AA?5?$AA?$CK?$AA?$DO?$AA?$CI?$AA_@ ; `string'
PUBLIC	??_C@_0BL@OCKMEJON@_Ptr_container?5?$DM?5_Ptr_user?$AA@ ; `string'
PUBLIC	??_C@_1EE@PDHAHDDC@?$AA?$CC?$AA_?$AAP?$AAt?$AAr?$AA_?$AAc?$AAo?$AAn?$AAt?$AAa?$AAi?$AAn?$AAe?$AAr?$AA?5?$AA?$DM?$AA?5?$AA_?$AAP?$AAt?$AAr?$AA_?$AAu?$AAs?$AAe?$AAr?$AA?$CC?$AA?5?$AA?$CG?$AA?$CG?$AA?5@ ; `string'
PUBLIC	??_C@_0DB@GLFJLNCE@2?5?$CK?5sizeof?$CIvoid?5?$CK?$CJ?5?$DM?$DN?5_Ptr_user?5@ ; `string'
PUBLIC	??_C@_1HA@NAPGMHAO@?$AA?$CC?$AA2?$AA?5?$AA?$CK?$AA?5?$AAs?$AAi?$AAz?$AAe?$AAo?$AAf?$AA?$CI?$AAv?$AAo?$AAi?$AAd?$AA?5?$AA?$CK?$AA?$CJ?$AA?5?$AA?$DM?$AA?$DN?$AA?5?$AA_?$AAP?$AAt?$AAr?$AA_?$AAu?$AAs?$AAe?$AAr@ ; `string'
PUBLIC	??_C@_0CN@BLHJCAL@_Ptr_user?5?9?5_Ptr_container?5?$DM?$DN?5_N@ ; `string'
PUBLIC	??_C@_1GI@DHJGPFNI@?$AA?$CC?$AA_?$AAP?$AAt?$AAr?$AA_?$AAu?$AAs?$AAe?$AAr?$AA?5?$AA?9?$AA?5?$AA_?$AAP?$AAt?$AAr?$AA_?$AAc?$AAo?$AAn?$AAt?$AAa?$AAi?$AAn?$AAe?$AAr?$AA?5?$AA?$DM?$AA?$DN?$AA?5?$AA_@ ; `string'
PUBLIC	?npos@?$basic_string@DU?$char_traits@D@std@@V?$allocator@D@2@@std@@2IB ; std::basic_string<char,std::char_traits<char>,std::allocator<char> >::npos
PUBLIC	??_C@_02NJPGOMH@?$CFf?$AA@			; `string'
PUBLIC	??_C@_04IBBNLEM@Game?$AA@			; `string'
PUBLIC	??_C@_0BG@KACMCBJI@time?5to?5init?5window?3?5?$AA@ ; `string'
PUBLIC	??_C@_0CC@PKKLOKEM@time?5to?5init?5graphicscontroller?3@ ; `string'
PUBLIC	??_C@_0CF@FDKOCCIO@data?2assets?2textures?2awesomeface@ ; `string'
PUBLIC	??_C@_0CD@PPBHHLFI@data?2assets?2textures?2container?4b@ ; `string'
PUBLIC	??_C@_1EE@PIAPABGP@?$AAd?$AA?3?$AA?2?$AAa?$AAp?$AAp?$AAd?$AAa?$AAt?$AAa?$AA?2?$AAv?$AAs?$AAp?$AA?2?$AAv?$AAc?$AA?2?$AAi?$AAn?$AAc?$AAl?$AAu?$AAd?$AAe?$AA?2?$AAx?$AAs?$AAt?$AAr?$AAi?$AAn@ ; `string'
PUBLIC	??_C@_1DM@GMPLOCPK@?$AAs?$AAt?$AAr?$AAi?$AAn?$AAg?$AA?5?$AAs?$AAu?$AAb?$AAs?$AAc?$AAr?$AAi?$AAp?$AAt?$AA?5?$AAo?$AAu?$AAt?$AA?5?$AAo?$AAf?$AA?5?$AAr?$AAa?$AAn?$AAg?$AAe?$AA?$AA@ ; `string'
PUBLIC	??_C@_0BI@CFPLBAOH@invalid?5string?5position?$AA@ ; `string'
PUBLIC	??_C@_0BA@JFNIOLAK@string?5too?5long?$AA@	; `string'
PUBLIC	??_C@_1CK@EOPGIILJ@?$AAi?$AAn?$AAv?$AAa?$AAl?$AAi?$AAd?$AA?5?$AAn?$AAu?$AAl?$AAl?$AA?5?$AAp?$AAo?$AAi?$AAn?$AAt?$AAe?$AAr?$AA?$AA@ ; `string'
PUBLIC	__real@00000000
EXTRN	??2@YAPAXI@Z:PROC				; operator new
EXTRN	??3@YAXPAX@Z:PROC				; operator delete
EXTRN	??3@YAXPAXI@Z:PROC				; operator delete
EXTRN	__imp___invalid_parameter:PROC
EXTRN	__imp_??0_Lockit@std@@QAE@H@Z:PROC
EXTRN	__imp_??1_Lockit@std@@QAE@XZ:PROC
EXTRN	__imp__rand:PROC
EXTRN	__imp____stdio_common_vsprintf:PROC
EXTRN	__imp____stdio_common_vsprintf_s:PROC
EXTRN	_memcpy:PROC
EXTRN	__imp__memmove:PROC
EXTRN	_memset:PROC
EXTRN	_strlen:PROC
EXTRN	__imp_?uncaught_exception@std@@YA_NXZ:PROC
EXTRN	__imp___CrtDbgReportW:PROC
EXTRN	__imp_?_Debug_message@std@@YAXPB_W0I@Z:PROC
EXTRN	__imp_?_Xbad_alloc@std@@YAXXZ:PROC
EXTRN	__imp_?_Xlength_error@std@@YAXPBD@Z:PROC
EXTRN	__imp_?_Xout_of_range@std@@YAXPBD@Z:PROC
EXTRN	__imp_?good@ios_base@std@@QBE_NXZ:PROC
EXTRN	__imp_?flags@ios_base@std@@QBEHXZ:PROC
EXTRN	__imp_?width@ios_base@std@@QBE_JXZ:PROC
EXTRN	__imp_?width@ios_base@std@@QAE_J_J@Z:PROC
EXTRN	__imp_?sputc@?$basic_streambuf@DU?$char_traits@D@std@@@std@@QAEHD@Z:PROC
EXTRN	__imp_?sputn@?$basic_streambuf@DU?$char_traits@D@std@@@std@@QAE_JPBD_J@Z:PROC
EXTRN	__imp_?setstate@?$basic_ios@DU?$char_traits@D@std@@@std@@QAEXH_N@Z:PROC
EXTRN	__imp_?tie@?$basic_ios@DU?$char_traits@D@std@@@std@@QBEPAV?$basic_ostream@DU?$char_traits@D@std@@@2@XZ:PROC
EXTRN	__imp_?rdbuf@?$basic_ios@DU?$char_traits@D@std@@@std@@QBEPAV?$basic_streambuf@DU?$char_traits@D@std@@@2@XZ:PROC
EXTRN	__imp_?fill@?$basic_ios@DU?$char_traits@D@std@@@std@@QBEDXZ:PROC
EXTRN	__imp_?widen@?$basic_ios@DU?$char_traits@D@std@@@std@@QBEDD@Z:PROC
EXTRN	__imp_?_Osfx@?$basic_ostream@DU?$char_traits@D@std@@@std@@QAEXXZ:PROC
EXTRN	__imp_??6?$basic_ostream@DU?$char_traits@D@std@@@std@@QAEAAV01@P6AAAV01@AAV01@@Z@Z:PROC
EXTRN	__imp_?put@?$basic_ostream@DU?$char_traits@D@std@@@std@@QAEAAV12@D@Z:PROC
EXTRN	__imp_?flush@?$basic_ostream@DU?$char_traits@D@std@@@std@@QAEAAV12@XZ:PROC
EXTRN	?MoveCameraPosition@Camera@@QAEXW4Camera_Movement@1@M@Z:PROC ; Camera::MoveCameraPosition
EXTRN	?ChangeViewAngle@Camera@@QAEXMME@Z:PROC		; Camera::ChangeViewAngle
EXTRN	?ChangeZoom@Camera@@QAEXM@Z:PROC		; Camera::ChangeZoom
EXTRN	??0EventListener@@QAE@XZ:PROC			; EventListener::EventListener
EXTRN	??1EventListener@@QAE@XZ:PROC			; EventListener::~EventListener
EXTRN	?GetKey@EventListener@@QAE_NW4KeyCode@@@Z:PROC	; EventListener::GetKey
EXTRN	?GetMousePos@EventListener@@QAE?AU?$tvec2@M$0A@@glm@@XZ:PROC ; EventListener::GetMousePos
EXTRN	?GetLastMousePos@EventListener@@QAE?AU?$tvec2@M$0A@@glm@@XZ:PROC ; EventListener::GetLastMousePos
EXTRN	?GetMouseScroll@EventListener@@QAEHXZ:PROC	; EventListener::GetMouseScroll
EXTRN	?GetViewportNeedsUpdating@EventListener@@QAE_NXZ:PROC ; EventListener::GetViewportNeedsUpdating
EXTRN	?GetIsMouseInWindow@EventListener@@QAE_NXZ:PROC	; EventListener::GetIsMouseInWindow
EXTRN	?GetMouseEnteredWindow@EventListener@@QAE_NXZ:PROC ; EventListener::GetMouseEnteredWindow
EXTRN	?GetCloseGame@EventListener@@QAE_NXZ:PROC	; EventListener::GetCloseGame
EXTRN	?GetWindowEvents@EventListener@@QAEPAUWindowEvents@@XZ:PROC ; EventListener::GetWindowEvents
EXTRN	?GetMouseEvents@EventListener@@QAEPAUMouseEvents@@XZ:PROC ; EventListener::GetMouseEvents
EXTRN	?SwapEvents@EventListener@@QAEXXZ:PROC		; EventListener::SwapEvents
EXTRN	??0Platform@@QAE@PAVEventListener@@@Z:PROC	; Platform::Platform
EXTRN	??1Platform@@QAE@XZ:PROC			; Platform::~Platform
EXTRN	?Init@Platform@@QAEXIIPBD@Z:PROC		; Platform::Init
EXTRN	?PollEvents@Platform@@QAEXPAVEventListener@@@Z:PROC ; Platform::PollEvents
EXTRN	?SwapBuffers@Platform@@QAEXXZ:PROC		; Platform::SwapBuffers
EXTRN	?GetWindowInfo@Platform@@QAEPAUWindowInfo@@XZ:PROC ; Platform::GetWindowInfo
EXTRN	?UpdateWindowInfo@Platform@@QAEXUWindowEvents@@@Z:PROC ; Platform::UpdateWindowInfo
EXTRN	??0ResourceManager@@QAE@PAVPlatform@@@Z:PROC	; ResourceManager::ResourceManager
EXTRN	?GetTexture@ResourceManager@@QAE?AUTextureInfo@@V?$basic_string@DU?$char_traits@D@std@@V?$allocator@D@2@@std@@@Z:PROC ; ResourceManager::GetTexture
EXTRN	??0GraphicsController@@QAE@UWindowInfo@@@Z:PROC	; GraphicsController::GraphicsController
EXTRN	??1GraphicsController@@QAE@XZ:PROC		; GraphicsController::~GraphicsController
EXTRN	?Render@GraphicsController@@QAEXNPAUBox@@@Z:PROC ; GraphicsController::Render
EXTRN	?UpdateViewport@GraphicsController@@QAEXII@Z:PROC ; GraphicsController::UpdateViewport
EXTRN	?BindTexture@GraphicsController@@QAEXPBUTextureInfo@@@Z:PROC ; GraphicsController::BindTexture
EXTRN	??0Clock@@QAE@XZ:PROC				; Clock::Clock
EXTRN	??1Clock@@QAE@XZ:PROC				; Clock::~Clock
EXTRN	?UpdateFrameTimes@Clock@@QAEXXZ:PROC		; Clock::UpdateFrameTimes
EXTRN	?GetTimeSinceStart@Clock@@QAENXZ:PROC		; Clock::GetTimeSinceStart
EXTRN	?GetDeltaFrameTime@Clock@@QAENXZ:PROC		; Clock::GetDeltaFrameTime
EXTRN	?Tick@Clock@@QAEXXZ:PROC			; Clock::Tick
EXTRN	?Tock@Clock@@QAENXZ:PROC			; Clock::Tock
EXTRN	?Message@Debug@@SAXV?$basic_string@DU?$char_traits@D@std@@V?$allocator@D@2@@std@@@Z:PROC ; Debug::Message
EXTRN	@_RTC_CheckStackVars@8:PROC
EXTRN	@__security_check_cookie@4:PROC
EXTRN	__CxxThrowException@8:PROC
EXTRN	__RTC_CheckEsp:PROC
EXTRN	__RTC_InitBase:PROC
EXTRN	__RTC_Shutdown:PROC
EXTRN	___CxxFrameHandler3:PROC
EXTRN	_memset:PROC
EXTRN	__imp_?cout@std@@3V?$basic_ostream@DU?$char_traits@D@std@@@1@A:BYTE
EXTRN	___security_cookie:DWORD
EXTRN	__fltused:DWORD
;	COMDAT ?_OptionsStorage@?1??__local_stdio_printf_options@@9@4_KA
_BSS	SEGMENT
?_OptionsStorage@?1??__local_stdio_printf_options@@9@4_KA DQ 01H DUP (?) ; `__local_stdio_printf_options'::`2'::_OptionsStorage
_BSS	ENDS
;	COMDAT __real@00000000
CONST	SEGMENT
__real@00000000 DD 000000000r			; 0
CONST	ENDS
;	COMDAT rtc$TMZ
rtc$TMZ	SEGMENT
__RTC_Shutdown.rtc$TMZ DD FLAT:__RTC_Shutdown
rtc$TMZ	ENDS
;	COMDAT rtc$IMZ
rtc$IMZ	SEGMENT
__RTC_InitBase.rtc$IMZ DD FLAT:__RTC_InitBase
rtc$IMZ	ENDS
;	COMDAT ??_C@_1CK@EOPGIILJ@?$AAi?$AAn?$AAv?$AAa?$AAl?$AAi?$AAd?$AA?5?$AAn?$AAu?$AAl?$AAl?$AA?5?$AAp?$AAo?$AAi?$AAn?$AAt?$AAe?$AAr?$AA?$AA@
CONST	SEGMENT
??_C@_1CK@EOPGIILJ@?$AAi?$AAn?$AAv?$AAa?$AAl?$AAi?$AAd?$AA?5?$AAn?$AAu?$AAl?$AAl?$AA?5?$AAp?$AAo?$AAi?$AAn?$AAt?$AAe?$AAr?$AA?$AA@ DB 'i'
	DB	00H, 'n', 00H, 'v', 00H, 'a', 00H, 'l', 00H, 'i', 00H, 'd', 00H
	DB	' ', 00H, 'n', 00H, 'u', 00H, 'l', 00H, 'l', 00H, ' ', 00H, 'p'
	DB	00H, 'o', 00H, 'i', 00H, 'n', 00H, 't', 00H, 'e', 00H, 'r', 00H
	DB	00H, 00H					; `string'
CONST	ENDS
;	COMDAT ??_C@_0BA@JFNIOLAK@string?5too?5long?$AA@
CONST	SEGMENT
??_C@_0BA@JFNIOLAK@string?5too?5long?$AA@ DB 'string too long', 00H ; `string'
CONST	ENDS
;	COMDAT ??_C@_0BI@CFPLBAOH@invalid?5string?5position?$AA@
CONST	SEGMENT
??_C@_0BI@CFPLBAOH@invalid?5string?5position?$AA@ DB 'invalid string posi'
	DB	'tion', 00H					; `string'
CONST	ENDS
;	COMDAT ??_C@_1DM@GMPLOCPK@?$AAs?$AAt?$AAr?$AAi?$AAn?$AAg?$AA?5?$AAs?$AAu?$AAb?$AAs?$AAc?$AAr?$AAi?$AAp?$AAt?$AA?5?$AAo?$AAu?$AAt?$AA?5?$AAo?$AAf?$AA?5?$AAr?$AAa?$AAn?$AAg?$AAe?$AA?$AA@
CONST	SEGMENT
??_C@_1DM@GMPLOCPK@?$AAs?$AAt?$AAr?$AAi?$AAn?$AAg?$AA?5?$AAs?$AAu?$AAb?$AAs?$AAc?$AAr?$AAi?$AAp?$AAt?$AA?5?$AAo?$AAu?$AAt?$AA?5?$AAo?$AAf?$AA?5?$AAr?$AAa?$AAn?$AAg?$AAe?$AA?$AA@ DB 's'
	DB	00H, 't', 00H, 'r', 00H, 'i', 00H, 'n', 00H, 'g', 00H, ' ', 00H
	DB	's', 00H, 'u', 00H, 'b', 00H, 's', 00H, 'c', 00H, 'r', 00H, 'i'
	DB	00H, 'p', 00H, 't', 00H, ' ', 00H, 'o', 00H, 'u', 00H, 't', 00H
	DB	' ', 00H, 'o', 00H, 'f', 00H, ' ', 00H, 'r', 00H, 'a', 00H, 'n'
	DB	00H, 'g', 00H, 'e', 00H, 00H, 00H		; `string'
CONST	ENDS
;	COMDAT ??_C@_1EE@PIAPABGP@?$AAd?$AA?3?$AA?2?$AAa?$AAp?$AAp?$AAd?$AAa?$AAt?$AAa?$AA?2?$AAv?$AAs?$AAp?$AA?2?$AAv?$AAc?$AA?2?$AAi?$AAn?$AAc?$AAl?$AAu?$AAd?$AAe?$AA?2?$AAx?$AAs?$AAt?$AAr?$AAi?$AAn@
CONST	SEGMENT
??_C@_1EE@PIAPABGP@?$AAd?$AA?3?$AA?2?$AAa?$AAp?$AAp?$AAd?$AAa?$AAt?$AAa?$AA?2?$AAv?$AAs?$AAp?$AA?2?$AAv?$AAc?$AA?2?$AAi?$AAn?$AAc?$AAl?$AAu?$AAd?$AAe?$AA?2?$AAx?$AAs?$AAt?$AAr?$AAi?$AAn@ DB 'd'
	DB	00H, ':', 00H, '\', 00H, 'a', 00H, 'p', 00H, 'p', 00H, 'd', 00H
	DB	'a', 00H, 't', 00H, 'a', 00H, '\', 00H, 'v', 00H, 's', 00H, 'p'
	DB	00H, '\', 00H, 'v', 00H, 'c', 00H, '\', 00H, 'i', 00H, 'n', 00H
	DB	'c', 00H, 'l', 00H, 'u', 00H, 'd', 00H, 'e', 00H, '\', 00H, 'x'
	DB	00H, 's', 00H, 't', 00H, 'r', 00H, 'i', 00H, 'n', 00H, 'g', 00H
	DB	00H, 00H					; `string'
CONST	ENDS
;	COMDAT ??_C@_0CD@PPBHHLFI@data?2assets?2textures?2container?4b@
CONST	SEGMENT
??_C@_0CD@PPBHHLFI@data?2assets?2textures?2container?4b@ DB 'data\assets\'
	DB	'textures\container.bmp', 00H		; `string'
CONST	ENDS
;	COMDAT ??_C@_0CF@FDKOCCIO@data?2assets?2textures?2awesomeface@
CONST	SEGMENT
??_C@_0CF@FDKOCCIO@data?2assets?2textures?2awesomeface@ DB 'data\assets\t'
	DB	'extures\awesomeface.bmp', 00H		; `string'
CONST	ENDS
;	COMDAT ??_C@_0CC@PKKLOKEM@time?5to?5init?5graphicscontroller?3@
CONST	SEGMENT
??_C@_0CC@PKKLOKEM@time?5to?5init?5graphicscontroller?3@ DB 'time to init'
	DB	' graphicscontroller: ', 00H			; `string'
CONST	ENDS
;	COMDAT ??_C@_0BG@KACMCBJI@time?5to?5init?5window?3?5?$AA@
CONST	SEGMENT
??_C@_0BG@KACMCBJI@time?5to?5init?5window?3?5?$AA@ DB 'time to init windo'
	DB	'w: ', 00H					; `string'
CONST	ENDS
;	COMDAT ??_C@_04IBBNLEM@Game?$AA@
CONST	SEGMENT
??_C@_04IBBNLEM@Game?$AA@ DB 'Game', 00H		; `string'
CONST	ENDS
;	COMDAT ??_C@_02NJPGOMH@?$CFf?$AA@
CONST	SEGMENT
??_C@_02NJPGOMH@?$CFf?$AA@ DB '%f', 00H			; `string'
CONST	ENDS
;	COMDAT ?npos@?$basic_string@DU?$char_traits@D@std@@V?$allocator@D@2@@std@@2IB
CONST	SEGMENT
?npos@?$basic_string@DU?$char_traits@D@std@@V?$allocator@D@2@@std@@2IB DD 0ffffffffH ; std::basic_string<char,std::char_traits<char>,std::allocator<char> >::npos
CONST	ENDS
;	COMDAT ??_C@_1GI@DHJGPFNI@?$AA?$CC?$AA_?$AAP?$AAt?$AAr?$AA_?$AAu?$AAs?$AAe?$AAr?$AA?5?$AA?9?$AA?5?$AA_?$AAP?$AAt?$AAr?$AA_?$AAc?$AAo?$AAn?$AAt?$AAa?$AAi?$AAn?$AAe?$AAr?$AA?5?$AA?$DM?$AA?$DN?$AA?5?$AA_@
CONST	SEGMENT
??_C@_1GI@DHJGPFNI@?$AA?$CC?$AA_?$AAP?$AAt?$AAr?$AA_?$AAu?$AAs?$AAe?$AAr?$AA?5?$AA?9?$AA?5?$AA_?$AAP?$AAt?$AAr?$AA_?$AAc?$AAo?$AAn?$AAt?$AAa?$AAi?$AAn?$AAe?$AAr?$AA?5?$AA?$DM?$AA?$DN?$AA?5?$AA_@ DB '"'
	DB	00H, '_', 00H, 'P', 00H, 't', 00H, 'r', 00H, '_', 00H, 'u', 00H
	DB	's', 00H, 'e', 00H, 'r', 00H, ' ', 00H, '-', 00H, ' ', 00H, '_'
	DB	00H, 'P', 00H, 't', 00H, 'r', 00H, '_', 00H, 'c', 00H, 'o', 00H
	DB	'n', 00H, 't', 00H, 'a', 00H, 'i', 00H, 'n', 00H, 'e', 00H, 'r'
	DB	00H, ' ', 00H, '<', 00H, '=', 00H, ' ', 00H, '_', 00H, 'N', 00H
	DB	'O', 00H, 'N', 00H, '_', 00H, 'U', 00H, 'S', 00H, 'E', 00H, 'R'
	DB	00H, '_', 00H, 'S', 00H, 'I', 00H, 'Z', 00H, 'E', 00H, '"', 00H
	DB	' ', 00H, '&', 00H, '&', 00H, ' ', 00H, '0', 00H, 00H, 00H ; `string'
CONST	ENDS
;	COMDAT ??_C@_0CN@BLHJCAL@_Ptr_user?5?9?5_Ptr_container?5?$DM?$DN?5_N@
CONST	SEGMENT
??_C@_0CN@BLHJCAL@_Ptr_user?5?9?5_Ptr_container?5?$DM?$DN?5_N@ DB '_Ptr_u'
	DB	'ser - _Ptr_container <= _NON_USER_SIZE', 00H ; `string'
CONST	ENDS
;	COMDAT ??_C@_1HA@NAPGMHAO@?$AA?$CC?$AA2?$AA?5?$AA?$CK?$AA?5?$AAs?$AAi?$AAz?$AAe?$AAo?$AAf?$AA?$CI?$AAv?$AAo?$AAi?$AAd?$AA?5?$AA?$CK?$AA?$CJ?$AA?5?$AA?$DM?$AA?$DN?$AA?5?$AA_?$AAP?$AAt?$AAr?$AA_?$AAu?$AAs?$AAe?$AAr@
CONST	SEGMENT
??_C@_1HA@NAPGMHAO@?$AA?$CC?$AA2?$AA?5?$AA?$CK?$AA?5?$AAs?$AAi?$AAz?$AAe?$AAo?$AAf?$AA?$CI?$AAv?$AAo?$AAi?$AAd?$AA?5?$AA?$CK?$AA?$CJ?$AA?5?$AA?$DM?$AA?$DN?$AA?5?$AA_?$AAP?$AAt?$AAr?$AA_?$AAu?$AAs?$AAe?$AAr@ DB '"'
	DB	00H, '2', 00H, ' ', 00H, '*', 00H, ' ', 00H, 's', 00H, 'i', 00H
	DB	'z', 00H, 'e', 00H, 'o', 00H, 'f', 00H, '(', 00H, 'v', 00H, 'o'
	DB	00H, 'i', 00H, 'd', 00H, ' ', 00H, '*', 00H, ')', 00H, ' ', 00H
	DB	'<', 00H, '=', 00H, ' ', 00H, '_', 00H, 'P', 00H, 't', 00H, 'r'
	DB	00H, '_', 00H, 'u', 00H, 's', 00H, 'e', 00H, 'r', 00H, ' ', 00H
	DB	'-', 00H, ' ', 00H, '_', 00H, 'P', 00H, 't', 00H, 'r', 00H, '_'
	DB	00H, 'c', 00H, 'o', 00H, 'n', 00H, 't', 00H, 'a', 00H, 'i', 00H
	DB	'n', 00H, 'e', 00H, 'r', 00H, '"', 00H, ' ', 00H, '&', 00H, '&'
	DB	00H, ' ', 00H, '0', 00H, 00H, 00H		; `string'
CONST	ENDS
;	COMDAT ??_C@_0DB@GLFJLNCE@2?5?$CK?5sizeof?$CIvoid?5?$CK?$CJ?5?$DM?$DN?5_Ptr_user?5@
CONST	SEGMENT
??_C@_0DB@GLFJLNCE@2?5?$CK?5sizeof?$CIvoid?5?$CK?$CJ?5?$DM?$DN?5_Ptr_user?5@ DB '2'
	DB	' * sizeof(void *) <= _Ptr_user - _Ptr_container', 00H ; `string'
CONST	ENDS
;	COMDAT ??_C@_1EE@PDHAHDDC@?$AA?$CC?$AA_?$AAP?$AAt?$AAr?$AA_?$AAc?$AAo?$AAn?$AAt?$AAa?$AAi?$AAn?$AAe?$AAr?$AA?5?$AA?$DM?$AA?5?$AA_?$AAP?$AAt?$AAr?$AA_?$AAu?$AAs?$AAe?$AAr?$AA?$CC?$AA?5?$AA?$CG?$AA?$CG?$AA?5@
CONST	SEGMENT
??_C@_1EE@PDHAHDDC@?$AA?$CC?$AA_?$AAP?$AAt?$AAr?$AA_?$AAc?$AAo?$AAn?$AAt?$AAa?$AAi?$AAn?$AAe?$AAr?$AA?5?$AA?$DM?$AA?5?$AA_?$AAP?$AAt?$AAr?$AA_?$AAu?$AAs?$AAe?$AAr?$AA?$CC?$AA?5?$AA?$CG?$AA?$CG?$AA?5@ DB '"'
	DB	00H, '_', 00H, 'P', 00H, 't', 00H, 'r', 00H, '_', 00H, 'c', 00H
	DB	'o', 00H, 'n', 00H, 't', 00H, 'a', 00H, 'i', 00H, 'n', 00H, 'e'
	DB	00H, 'r', 00H, ' ', 00H, '<', 00H, ' ', 00H, '_', 00H, 'P', 00H
	DB	't', 00H, 'r', 00H, '_', 00H, 'u', 00H, 's', 00H, 'e', 00H, 'r'
	DB	00H, '"', 00H, ' ', 00H, '&', 00H, '&', 00H, ' ', 00H, '0', 00H
	DB	00H, 00H					; `string'
CONST	ENDS
;	COMDAT ??_C@_0BL@OCKMEJON@_Ptr_container?5?$DM?5_Ptr_user?$AA@
CONST	SEGMENT
??_C@_0BL@OCKMEJON@_Ptr_container?5?$DM?5_Ptr_user?$AA@ DB '_Ptr_containe'
	DB	'r < _Ptr_user', 00H				; `string'
CONST	ENDS
;	COMDAT ??_C@_1JO@EKLKIEHP@?$AA?$CC?$AAr?$AAe?$AAi?$AAn?$AAt?$AAe?$AAr?$AAp?$AAr?$AAe?$AAt?$AA_?$AAc?$AAa?$AAs?$AAt?$AA?$DM?$AAu?$AAi?$AAn?$AAt?$AAp?$AAt?$AAr?$AA_?$AAt?$AA?5?$AA?$CK?$AA?$DO?$AA?$CI?$AA_@
CONST	SEGMENT
??_C@_1JO@EKLKIEHP@?$AA?$CC?$AAr?$AAe?$AAi?$AAn?$AAt?$AAe?$AAr?$AAp?$AAr?$AAe?$AAt?$AA_?$AAc?$AAa?$AAs?$AAt?$AA?$DM?$AAu?$AAi?$AAn?$AAt?$AAp?$AAt?$AAr?$AA_?$AAt?$AA?5?$AA?$CK?$AA?$DO?$AA?$CI?$AA_@ DB '"'
	DB	00H, 'r', 00H, 'e', 00H, 'i', 00H, 'n', 00H, 't', 00H, 'e', 00H
	DB	'r', 00H, 'p', 00H, 'r', 00H, 'e', 00H, 't', 00H, '_', 00H, 'c'
	DB	00H, 'a', 00H, 's', 00H, 't', 00H, '<', 00H, 'u', 00H, 'i', 00H
	DB	'n', 00H, 't', 00H, 'p', 00H, 't', 00H, 'r', 00H, '_', 00H, 't'
	DB	00H, ' ', 00H, '*', 00H, '>', 00H, '(', 00H, '_', 00H, 'P', 00H
	DB	't', 00H, 'r', 00H, '_', 00H, 'p', 00H, 't', 00H, 'r', 00H, ')'
	DB	00H, '[', 00H, '-', 00H, '1', 00H, ']', 00H, ' ', 00H, '=', 00H
	DB	'=', 00H, ' ', 00H, '_', 00H, 'B', 00H, 'I', 00H, 'G', 00H, '_'
	DB	00H, 'A', 00H, 'L', 00H, 'L', 00H, 'O', 00H, 'C', 00H, 'A', 00H
	DB	'T', 00H, 'I', 00H, 'O', 00H, 'N', 00H, '_', 00H, 'S', 00H, 'E'
	DB	00H, 'N', 00H, 'T', 00H, 'I', 00H, 'N', 00H, 'E', 00H, 'L', 00H
	DB	'"', 00H, ' ', 00H, '&', 00H, '&', 00H, ' ', 00H, '0', 00H, 00H
	DB	00H						; `string'
CONST	ENDS
;	COMDAT ??_C@_0EI@NOJHEJCJ@reinterpret_cast?$DMuintptr_t?5?$CK?$DO?$CI_P@
CONST	SEGMENT
??_C@_0EI@NOJHEJCJ@reinterpret_cast?$DMuintptr_t?5?$CK?$DO?$CI_P@ DB 'rei'
	DB	'nterpret_cast<uintptr_t *>(_Ptr_ptr)[-1] == _BIG_ALLOCATION_S'
	DB	'ENTINEL', 00H				; `string'
CONST	ENDS
;	COMDAT ??_C@_1HE@CDMBFOKC@?$AA?$CC?$AA?$CI?$AA_?$AAP?$AAt?$AAr?$AA_?$AAu?$AAs?$AAe?$AAr?$AA?5?$AA?$CG?$AA?5?$AA?$CI?$AA_?$AAB?$AAI?$AAG?$AA_?$AAA?$AAL?$AAL?$AAO?$AAC?$AAA?$AAT?$AAI?$AAO?$AAN?$AA_?$AAA@
CONST	SEGMENT
??_C@_1HE@CDMBFOKC@?$AA?$CC?$AA?$CI?$AA_?$AAP?$AAt?$AAr?$AA_?$AAu?$AAs?$AAe?$AAr?$AA?5?$AA?$CG?$AA?5?$AA?$CI?$AA_?$AAB?$AAI?$AAG?$AA_?$AAA?$AAL?$AAL?$AAO?$AAC?$AAA?$AAT?$AAI?$AAO?$AAN?$AA_?$AAA@ DB '"'
	DB	00H, '(', 00H, '_', 00H, 'P', 00H, 't', 00H, 'r', 00H, '_', 00H
	DB	'u', 00H, 's', 00H, 'e', 00H, 'r', 00H, ' ', 00H, '&', 00H, ' '
	DB	00H, '(', 00H, '_', 00H, 'B', 00H, 'I', 00H, 'G', 00H, '_', 00H
	DB	'A', 00H, 'L', 00H, 'L', 00H, 'O', 00H, 'C', 00H, 'A', 00H, 'T'
	DB	00H, 'I', 00H, 'O', 00H, 'N', 00H, '_', 00H, 'A', 00H, 'L', 00H
	DB	'I', 00H, 'G', 00H, 'N', 00H, 'M', 00H, 'E', 00H, 'N', 00H, 'T'
	DB	00H, ' ', 00H, '-', 00H, ' ', 00H, '1', 00H, ')', 00H, ')', 00H
	DB	' ', 00H, '=', 00H, '=', 00H, ' ', 00H, '0', 00H, '"', 00H, ' '
	DB	00H, '&', 00H, '&', 00H, ' ', 00H, '0', 00H, 00H, 00H ; `string'
CONST	ENDS
;	COMDAT ??_C@_0DD@GBGGGKGG@?$CI_Ptr_user?5?$CG?5?$CI_BIG_ALLOCATION_AL@
CONST	SEGMENT
??_C@_0DD@GBGGGKGG@?$CI_Ptr_user?5?$CG?5?$CI_BIG_ALLOCATION_AL@ DB '(_Ptr'
	DB	'_user & (_BIG_ALLOCATION_ALIGNMENT - 1)) == 0', 00H ; `string'
CONST	ENDS
;	COMDAT ??_C@_1CC@LOFJFFDB@?$AAs?$AAt?$AAd?$AA?3?$AA?3?$AA_?$AAD?$AAe?$AAa?$AAl?$AAl?$AAo?$AAc?$AAa?$AAt?$AAe?$AA?$AA@
CONST	SEGMENT
??_C@_1CC@LOFJFFDB@?$AAs?$AAt?$AAd?$AA?3?$AA?3?$AA_?$AAD?$AAe?$AAa?$AAl?$AAl?$AAo?$AAc?$AAa?$AAt?$AAe?$AA?$AA@ DB 's'
	DB	00H, 't', 00H, 'd', 00H, ':', 00H, ':', 00H, '_', 00H, 'D', 00H
	DB	'e', 00H, 'a', 00H, 'l', 00H, 'l', 00H, 'o', 00H, 'c', 00H, 'a'
	DB	00H, 't', 00H, 'e', 00H, 00H, 00H		; `string'
CONST	ENDS
;	COMDAT ??_C@_1EI@MLOBABC@?$AA?$CC?$AA_?$AAC?$AAo?$AAu?$AAn?$AAt?$AA?5?$AA?$DM?$AA?$DN?$AA?5?$AA?$CI?$AAs?$AAi?$AAz?$AAe?$AA_?$AAt?$AA?$CJ?$AA?$CI?$AA?9?$AA1?$AA?$CJ?$AA?5?$AA?1?$AA?5?$AA_?$AAS?$AAz?$AA?$CC?$AA?5?$AA?$CG@
CONST	SEGMENT
??_C@_1EI@MLOBABC@?$AA?$CC?$AA_?$AAC?$AAo?$AAu?$AAn?$AAt?$AA?5?$AA?$DM?$AA?$DN?$AA?5?$AA?$CI?$AAs?$AAi?$AAz?$AAe?$AA_?$AAt?$AA?$CJ?$AA?$CI?$AA?9?$AA1?$AA?$CJ?$AA?5?$AA?1?$AA?5?$AA_?$AAS?$AAz?$AA?$CC?$AA?5?$AA?$CG@ DB '"'
	DB	00H, '_', 00H, 'C', 00H, 'o', 00H, 'u', 00H, 'n', 00H, 't', 00H
	DB	' ', 00H, '<', 00H, '=', 00H, ' ', 00H, '(', 00H, 's', 00H, 'i'
	DB	00H, 'z', 00H, 'e', 00H, '_', 00H, 't', 00H, ')', 00H, '(', 00H
	DB	'-', 00H, '1', 00H, ')', 00H, ' ', 00H, '/', 00H, ' ', 00H, '_'
	DB	00H, 'S', 00H, 'z', 00H, '"', 00H, ' ', 00H, '&', 00H, '&', 00H
	DB	' ', 00H, '0', 00H, 00H, 00H			; `string'
CONST	ENDS
;	COMDAT ??_C@_0BN@HMCJOMKN@_Count?5?$DM?$DN?5?$CIsize_t?$CJ?$CI?91?$CJ?5?1?5_Sz?$AA@
CONST	SEGMENT
??_C@_0BN@HMCJOMKN@_Count?5?$DM?$DN?5?$CIsize_t?$CJ?$CI?91?$CJ?5?1?5_Sz?$AA@ DB '_'
	DB	'Count <= (size_t)(-1) / _Sz', 00H		; `string'
CONST	ENDS
;	COMDAT ?__LINE__Var@?0??_Deallocate@std@@YAXPAXII@Z@4JA
_DATA	SEGMENT
?__LINE__Var@?0??_Deallocate@std@@YAXPAXII@Z@4JA DD 062H ; `std::_Deallocate'::`1'::__LINE__Var
_DATA	ENDS
;	COMDAT ??_C@_1CC@GKJLLHIM@?$AA?$CC?$AA_?$AAP?$AAt?$AAr?$AA?5?$AA?$CB?$AA?$DN?$AA?5?$AA0?$AA?$CC?$AA?5?$AA?$CG?$AA?$CG?$AA?5?$AA0?$AA?$AA@
CONST	SEGMENT
??_C@_1CC@GKJLLHIM@?$AA?$CC?$AA_?$AAP?$AAt?$AAr?$AA?5?$AA?$CB?$AA?$DN?$AA?5?$AA0?$AA?$CC?$AA?5?$AA?$CG?$AA?$CG?$AA?5?$AA0?$AA?$AA@ DB '"'
	DB	00H, '_', 00H, 'P', 00H, 't', 00H, 'r', 00H, ' ', 00H, '!', 00H
	DB	'=', 00H, ' ', 00H, '0', 00H, '"', 00H, ' ', 00H, '&', 00H, '&'
	DB	00H, ' ', 00H, '0', 00H, 00H, 00H		; `string'
CONST	ENDS
;	COMDAT ??_C@_09GLJCAGLP@_Ptr?5?$CB?$DN?50?$AA@
CONST	SEGMENT
??_C@_09GLJCAGLP@_Ptr?5?$CB?$DN?50?$AA@ DB '_Ptr != 0', 00H ; `string'
CONST	ENDS
;	COMDAT ??_C@_1CG@JNLFBNGN@?$AA?$CC?$AAi?$AAn?$AAv?$AAa?$AAl?$AAi?$AAd?$AA?5?$AAa?$AAr?$AAg?$AAu?$AAm?$AAe?$AAn?$AAt?$AA?$CC?$AA?$AA@
CONST	SEGMENT
??_C@_1CG@JNLFBNGN@?$AA?$CC?$AAi?$AAn?$AAv?$AAa?$AAl?$AAi?$AAd?$AA?5?$AAa?$AAr?$AAg?$AAu?$AAm?$AAe?$AAn?$AAt?$AA?$CC?$AA?$AA@ DB '"'
	DB	00H, 'i', 00H, 'n', 00H, 'v', 00H, 'a', 00H, 'l', 00H, 'i', 00H
	DB	'd', 00H, ' ', 00H, 'a', 00H, 'r', 00H, 'g', 00H, 'u', 00H, 'm'
	DB	00H, 'e', 00H, 'n', 00H, 't', 00H, '"', 00H, 00H, 00H ; `string'
CONST	ENDS
;	COMDAT ??_C@_1BO@NKFMJPA@?$AAs?$AAt?$AAd?$AA?3?$AA?3?$AA_?$AAA?$AAl?$AAl?$AAo?$AAc?$AAa?$AAt?$AAe?$AA?$AA@
CONST	SEGMENT
??_C@_1BO@NKFMJPA@?$AAs?$AAt?$AAd?$AA?3?$AA?3?$AA_?$AAA?$AAl?$AAl?$AAo?$AAc?$AAa?$AAt?$AAe?$AA?$AA@ DB 's'
	DB	00H, 't', 00H, 'd', 00H, ':', 00H, ':', 00H, '_', 00H, 'A', 00H
	DB	'l', 00H, 'l', 00H, 'o', 00H, 'c', 00H, 'a', 00H, 't', 00H, 'e'
	DB	00H, 00H, 00H				; `string'
CONST	ENDS
;	COMDAT ??_C@_1EG@DJALBHDK@?$AAd?$AA?3?$AA?2?$AAa?$AAp?$AAp?$AAd?$AAa?$AAt?$AAa?$AA?2?$AAv?$AAs?$AAp?$AA?2?$AAv?$AAc?$AA?2?$AAi?$AAn?$AAc?$AAl?$AAu?$AAd?$AAe?$AA?2?$AAx?$AAm?$AAe?$AAm?$AAo?$AAr@
CONST	SEGMENT
??_C@_1EG@DJALBHDK@?$AAd?$AA?3?$AA?2?$AAa?$AAp?$AAp?$AAd?$AAa?$AAt?$AAa?$AA?2?$AAv?$AAs?$AAp?$AA?2?$AAv?$AAc?$AA?2?$AAi?$AAn?$AAc?$AAl?$AAu?$AAd?$AAe?$AA?2?$AAx?$AAm?$AAe?$AAm?$AAo?$AAr@ DB 'd'
	DB	00H, ':', 00H, '\', 00H, 'a', 00H, 'p', 00H, 'p', 00H, 'd', 00H
	DB	'a', 00H, 't', 00H, 'a', 00H, '\', 00H, 'v', 00H, 's', 00H, 'p'
	DB	00H, '\', 00H, 'v', 00H, 'c', 00H, '\', 00H, 'i', 00H, 'n', 00H
	DB	'c', 00H, 'l', 00H, 'u', 00H, 'd', 00H, 'e', 00H, '\', 00H, 'x'
	DB	00H, 'm', 00H, 'e', 00H, 'm', 00H, 'o', 00H, 'r', 00H, 'y', 00H
	DB	'0', 00H, 00H, 00H				; `string'
CONST	ENDS
;	COMDAT ??_C@_17CNPHIMPH@?$AA?$CF?$AAl?$AAs?$AA?$AA@
CONST	SEGMENT
??_C@_17CNPHIMPH@?$AA?$CF?$AAl?$AAs?$AA?$AA@ DB '%', 00H, 'l', 00H, 's', 00H
	DB	00H, 00H					; `string'
CONST	ENDS
;	COMDAT ??_C@_1DG@HGDKEBPG@?$AA?$CC?$AA_?$AAP?$AAt?$AAr?$AA_?$AAc?$AAo?$AAn?$AAt?$AAa?$AAi?$AAn?$AAe?$AAr?$AA?5?$AA?$CB?$AA?$DN?$AA?5?$AA0?$AA?$CC?$AA?5?$AA?$CG?$AA?$CG?$AA?5?$AA0?$AA?$AA@
CONST	SEGMENT
??_C@_1DG@HGDKEBPG@?$AA?$CC?$AA_?$AAP?$AAt?$AAr?$AA_?$AAc?$AAo?$AAn?$AAt?$AAa?$AAi?$AAn?$AAe?$AAr?$AA?5?$AA?$CB?$AA?$DN?$AA?5?$AA0?$AA?$CC?$AA?5?$AA?$CG?$AA?$CG?$AA?5?$AA0?$AA?$AA@ DB '"'
	DB	00H, '_', 00H, 'P', 00H, 't', 00H, 'r', 00H, '_', 00H, 'c', 00H
	DB	'o', 00H, 'n', 00H, 't', 00H, 'a', 00H, 'i', 00H, 'n', 00H, 'e'
	DB	00H, 'r', 00H, ' ', 00H, '!', 00H, '=', 00H, ' ', 00H, '0', 00H
	DB	'"', 00H, ' ', 00H, '&', 00H, '&', 00H, ' ', 00H, '0', 00H, 00H
	DB	00H						; `string'
CONST	ENDS
;	COMDAT ??_C@_0BE@LMNLACIC@_Ptr_container?5?$CB?$DN?50?$AA@
CONST	SEGMENT
??_C@_0BE@LMNLACIC@_Ptr_container?5?$CB?$DN?50?$AA@ DB '_Ptr_container !='
	DB	' 0', 00H					; `string'
CONST	ENDS
;	COMDAT ?__LINE__Var@?0??_Allocate@std@@YAPAXII_N@Z@4JA
_DATA	SEGMENT
?__LINE__Var@?0??_Allocate@std@@YAPAXII_N@Z@4JA DD 036H	; `std::_Allocate'::`1'::__LINE__Var
_DATA	ENDS
;	COMDAT xdata$x
xdata$x	SEGMENT
__ehfuncinfo$??1sentry@?$basic_ostream@DU?$char_traits@D@std@@@std@@QAE@XZ DD 019930522H
	DD	00H
	DD	00H
	DD	2 DUP(00H)
	DD	2 DUP(00H)
	DD	00H
	DD	05H
xdata$x	ENDS
;	COMDAT xdata$x
xdata$x	SEGMENT
__unwindtable$??0sentry@?$basic_ostream@DU?$char_traits@D@std@@@std@@QAE@AAV12@@Z DD 0ffffffffH
	DD	FLAT:__unwindfunclet$??0sentry@?$basic_ostream@DU?$char_traits@D@std@@@std@@QAE@AAV12@@Z$0
__ehfuncinfo$??0sentry@?$basic_ostream@DU?$char_traits@D@std@@@std@@QAE@AAV12@@Z DD 019930522H
	DD	01H
	DD	FLAT:__unwindtable$??0sentry@?$basic_ostream@DU?$char_traits@D@std@@@std@@QAE@AAV12@@Z
	DD	2 DUP(00H)
	DD	2 DUP(00H)
	DD	00H
	DD	01H
xdata$x	ENDS
;	COMDAT xdata$x
xdata$x	SEGMENT
__ehfuncinfo$??1_Sentry_base@?$basic_ostream@DU?$char_traits@D@std@@@std@@QAE@XZ DD 019930522H
	DD	00H
	DD	00H
	DD	2 DUP(00H)
	DD	2 DUP(00H)
	DD	00H
	DD	05H
xdata$x	ENDS
;	COMDAT xdata$x
xdata$x	SEGMENT
__catchsym$??$?6DU?$char_traits@D@std@@V?$allocator@D@1@@std@@YAAAV?$basic_ostream@DU?$char_traits@D@std@@@0@AAV10@ABV?$basic_string@DU?$char_traits@D@std@@V?$allocator@D@2@@0@@Z$3 DD 040H
	DD	00H
	DD	00H
	DD	FLAT:__catch$??$?6DU?$char_traits@D@std@@V?$allocator@D@1@@std@@YAAAV?$basic_ostream@DU?$char_traits@D@std@@@0@AAV10@ABV?$basic_string@DU?$char_traits@D@std@@V?$allocator@D@2@@0@@Z$0
__tryblocktable$??$?6DU?$char_traits@D@std@@V?$allocator@D@1@@std@@YAAAV?$basic_ostream@DU?$char_traits@D@std@@@0@AAV10@ABV?$basic_string@DU?$char_traits@D@std@@V?$allocator@D@2@@0@@Z DD 01H
	DD	01H
	DD	02H
	DD	01H
	DD	FLAT:__catchsym$??$?6DU?$char_traits@D@std@@V?$allocator@D@1@@std@@YAAAV?$basic_ostream@DU?$char_traits@D@std@@@0@AAV10@ABV?$basic_string@DU?$char_traits@D@std@@V?$allocator@D@2@@0@@Z$3
__unwindtable$??$?6DU?$char_traits@D@std@@V?$allocator@D@1@@std@@YAAAV?$basic_ostream@DU?$char_traits@D@std@@@0@AAV10@ABV?$basic_string@DU?$char_traits@D@std@@V?$allocator@D@2@@0@@Z DD 0ffffffffH
	DD	FLAT:__unwindfunclet$??$?6DU?$char_traits@D@std@@V?$allocator@D@1@@std@@YAAAV?$basic_ostream@DU?$char_traits@D@std@@@0@AAV10@ABV?$basic_string@DU?$char_traits@D@std@@V?$allocator@D@2@@0@@Z$2
	DD	00H
	DD	00H
	DD	00H
	DD	00H
__ehfuncinfo$??$?6DU?$char_traits@D@std@@V?$allocator@D@1@@std@@YAAAV?$basic_ostream@DU?$char_traits@D@std@@@0@AAV10@ABV?$basic_string@DU?$char_traits@D@std@@V?$allocator@D@2@@0@@Z DD 019930522H
	DD	03H
	DD	FLAT:__unwindtable$??$?6DU?$char_traits@D@std@@V?$allocator@D@1@@std@@YAAAV?$basic_ostream@DU?$char_traits@D@std@@@0@AAV10@ABV?$basic_string@DU?$char_traits@D@std@@V?$allocator@D@2@@0@@Z
	DD	01H
	DD	FLAT:__tryblocktable$??$?6DU?$char_traits@D@std@@V?$allocator@D@1@@std@@YAAAV?$basic_ostream@DU?$char_traits@D@std@@@0@AAV10@ABV?$basic_string@DU?$char_traits@D@std@@V?$allocator@D@2@@0@@Z
	DD	2 DUP(00H)
	DD	00H
	DD	01H
xdata$x	ENDS
;	COMDAT xdata$x
xdata$x	SEGMENT
__ehfuncinfo$??0MainGame@@QAE@XZ DD 019930522H
	DD	09H
	DD	FLAT:__unwindtable$??0MainGame@@QAE@XZ
	DD	2 DUP(00H)
	DD	2 DUP(00H)
	DD	00H
	DD	01H
__unwindtable$??0MainGame@@QAE@XZ DD 0ffffffffH
	DD	FLAT:__unwindfunclet$??0MainGame@@QAE@XZ$0
	DD	0ffffffffH
	DD	FLAT:__unwindfunclet$??0MainGame@@QAE@XZ$1
	DD	0ffffffffH
	DD	FLAT:__unwindfunclet$??0MainGame@@QAE@XZ$2
	DD	0ffffffffH
	DD	FLAT:__unwindfunclet$??0MainGame@@QAE@XZ$3
	DD	0ffffffffH
	DD	FLAT:__unwindfunclet$??0MainGame@@QAE@XZ$4
	DD	04H
	DD	FLAT:__unwindfunclet$??0MainGame@@QAE@XZ$5
	DD	0ffffffffH
	DD	FLAT:__unwindfunclet$??0MainGame@@QAE@XZ$6
	DD	0ffffffffH
	DD	FLAT:__unwindfunclet$??0MainGame@@QAE@XZ$7
	DD	07H
	DD	FLAT:__unwindfunclet$??0MainGame@@QAE@XZ$8
xdata$x	ENDS
;	COMDAT xdata$x
xdata$x	SEGMENT
__unwindtable$??$_Floating_to_string@N@std@@YA?AV?$basic_string@DU?$char_traits@D@std@@V?$allocator@D@2@@0@PBDN@Z DD 0ffffffffH
	DD	FLAT:__unwindfunclet$??$_Floating_to_string@N@std@@YA?AV?$basic_string@DU?$char_traits@D@std@@V?$allocator@D@2@@0@PBDN@Z$0
__ehfuncinfo$??$_Floating_to_string@N@std@@YA?AV?$basic_string@DU?$char_traits@D@std@@V?$allocator@D@2@@0@PBDN@Z DD 019930522H
	DD	01H
	DD	FLAT:__unwindtable$??$_Floating_to_string@N@std@@YA?AV?$basic_string@DU?$char_traits@D@std@@V?$allocator@D@2@@0@PBDN@Z
	DD	2 DUP(00H)
	DD	2 DUP(00H)
	DD	00H
	DD	01H
xdata$x	ENDS
;	COMDAT xdata$x
xdata$x	SEGMENT
__catchsym$?_Copy@?$basic_string@DU?$char_traits@D@std@@V?$allocator@D@2@@std@@QAEXII@Z$5 DD 040H
	DD	00H
	DD	00H
	DD	FLAT:__catch$?_Copy@?$basic_string@DU?$char_traits@D@std@@V?$allocator@D@2@@std@@QAEXII@Z$0
__catchsym$?_Copy@?$basic_string@DU?$char_traits@D@std@@V?$allocator@D@2@@std@@QAEXII@Z$4 DD 040H
	DD	00H
	DD	00H
	DD	FLAT:__catch$?_Copy@?$basic_string@DU?$char_traits@D@std@@V?$allocator@D@2@@std@@QAEXII@Z$1
__unwindtable$?_Copy@?$basic_string@DU?$char_traits@D@std@@V?$allocator@D@2@@std@@QAEXII@Z DD 0ffffffffH
	DD	00H
	DD	0ffffffffH
	DD	00H
	DD	01H
	DD	00H
	DD	01H
	DD	00H
__ehfuncinfo$?_Copy@?$basic_string@DU?$char_traits@D@std@@V?$allocator@D@2@@std@@QAEXII@Z DD 019930522H
	DD	04H
	DD	FLAT:__unwindtable$?_Copy@?$basic_string@DU?$char_traits@D@std@@V?$allocator@D@2@@std@@QAEXII@Z
	DD	02H
	DD	FLAT:__tryblocktable$?_Copy@?$basic_string@DU?$char_traits@D@std@@V?$allocator@D@2@@std@@QAEXII@Z
	DD	2 DUP(00H)
	DD	00H
	DD	01H
__tryblocktable$?_Copy@?$basic_string@DU?$char_traits@D@std@@V?$allocator@D@2@@std@@QAEXII@Z DD 02H
	DD	02H
	DD	03H
	DD	01H
	DD	FLAT:__catchsym$?_Copy@?$basic_string@DU?$char_traits@D@std@@V?$allocator@D@2@@std@@QAEXII@Z$4
	DD	00H
	DD	00H
	DD	03H
	DD	01H
	DD	FLAT:__catchsym$?_Copy@?$basic_string@DU?$char_traits@D@std@@V?$allocator@D@2@@std@@QAEXII@Z$5
xdata$x	ENDS
;	COMDAT xdata$x
xdata$x	SEGMENT
__ehfuncinfo$?c_str@?$basic_string@DU?$char_traits@D@std@@V?$allocator@D@2@@std@@QBEPBDXZ DD 019930522H
	DD	00H
	DD	00H
	DD	2 DUP(00H)
	DD	2 DUP(00H)
	DD	00H
	DD	05H
xdata$x	ENDS
;	COMDAT xdata$x
xdata$x	SEGMENT
__ehfuncinfo$??1?$basic_string@DU?$char_traits@D@std@@V?$allocator@D@2@@std@@QAE@XZ DD 019930522H
	DD	00H
	DD	00H
	DD	2 DUP(00H)
	DD	2 DUP(00H)
	DD	00H
	DD	05H
xdata$x	ENDS
;	COMDAT xdata$x
xdata$x	SEGMENT
__ehfuncinfo$??0?$basic_string@DU?$char_traits@D@std@@V?$allocator@D@2@@std@@QAE@$$QAV01@@Z DD 019930522H
	DD	00H
	DD	00H
	DD	2 DUP(00H)
	DD	2 DUP(00H)
	DD	00H
	DD	05H
xdata$x	ENDS
;	COMDAT xdata$x
xdata$x	SEGMENT
__unwindtable$??0?$basic_string@DU?$char_traits@D@std@@V?$allocator@D@2@@std@@QAE@ID@Z DD 0ffffffffH
	DD	FLAT:__unwindfunclet$??0?$basic_string@DU?$char_traits@D@std@@V?$allocator@D@2@@std@@QAE@ID@Z$0
__ehfuncinfo$??0?$basic_string@DU?$char_traits@D@std@@V?$allocator@D@2@@std@@QAE@ID@Z DD 019930522H
	DD	01H
	DD	FLAT:__unwindtable$??0?$basic_string@DU?$char_traits@D@std@@V?$allocator@D@2@@std@@QAE@ID@Z
	DD	2 DUP(00H)
	DD	2 DUP(00H)
	DD	00H
	DD	01H
xdata$x	ENDS
;	COMDAT xdata$x
xdata$x	SEGMENT
__unwindtable$??0?$basic_string@DU?$char_traits@D@std@@V?$allocator@D@2@@std@@QAE@PBD@Z DD 0ffffffffH
	DD	FLAT:__unwindfunclet$??0?$basic_string@DU?$char_traits@D@std@@V?$allocator@D@2@@std@@QAE@PBD@Z$0
__ehfuncinfo$??0?$basic_string@DU?$char_traits@D@std@@V?$allocator@D@2@@std@@QAE@PBD@Z DD 019930522H
	DD	01H
	DD	FLAT:__unwindtable$??0?$basic_string@DU?$char_traits@D@std@@V?$allocator@D@2@@std@@QAE@PBD@Z
	DD	2 DUP(00H)
	DD	2 DUP(00H)
	DD	00H
	DD	01H
xdata$x	ENDS
;	COMDAT xdata$x
xdata$x	SEGMENT
__ehfuncinfo$??1?$_String_alloc@U?$_String_base_types@DV?$allocator@D@std@@@std@@@std@@QAE@XZ DD 019930522H
	DD	00H
	DD	00H
	DD	2 DUP(00H)
	DD	2 DUP(00H)
	DD	00H
	DD	05H
xdata$x	ENDS
;	COMDAT xdata$x
xdata$x	SEGMENT
__unwindtable$??0?$_String_alloc@U?$_String_base_types@DV?$allocator@D@std@@@std@@@std@@QAE@$$QAV?$allocator@D@1@@Z DD 0ffffffffH
	DD	FLAT:__unwindfunclet$??0?$_String_alloc@U?$_String_base_types@DV?$allocator@D@std@@@std@@@std@@QAE@$$QAV?$allocator@D@1@@Z$0
__ehfuncinfo$??0?$_String_alloc@U?$_String_base_types@DV?$allocator@D@std@@@std@@@std@@QAE@$$QAV?$allocator@D@1@@Z DD 019930522H
	DD	01H
	DD	FLAT:__unwindtable$??0?$_String_alloc@U?$_String_base_types@DV?$allocator@D@std@@@std@@@std@@QAE@$$QAV?$allocator@D@1@@Z
	DD	2 DUP(00H)
	DD	2 DUP(00H)
	DD	00H
	DD	01H
xdata$x	ENDS
;	COMDAT xdata$x
xdata$x	SEGMENT
__unwindtable$??0?$_String_alloc@U?$_String_base_types@DV?$allocator@D@std@@@std@@@std@@QAE@ABV?$allocator@D@1@@Z DD 0ffffffffH
	DD	FLAT:__unwindfunclet$??0?$_String_alloc@U?$_String_base_types@DV?$allocator@D@std@@@std@@@std@@QAE@ABV?$allocator@D@1@@Z$0
__ehfuncinfo$??0?$_String_alloc@U?$_String_base_types@DV?$allocator@D@std@@@std@@@std@@QAE@ABV?$allocator@D@1@@Z DD 019930522H
	DD	01H
	DD	FLAT:__unwindtable$??0?$_String_alloc@U?$_String_base_types@DV?$allocator@D@std@@@std@@@std@@QAE@ABV?$allocator@D@1@@Z
	DD	2 DUP(00H)
	DD	2 DUP(00H)
	DD	00H
	DD	01H
xdata$x	ENDS
;	COMDAT xdata$x
xdata$x	SEGMENT
__ehfuncinfo$??1_Container_base12@std@@QAE@XZ DD 019930522H
	DD	00H
	DD	00H
	DD	2 DUP(00H)
	DD	2 DUP(00H)
	DD	00H
	DD	05H
xdata$x	ENDS
; Function compile flags: /Odtp /RTCsu /ZI
; File d:\appdata\vsp\vc\include\xmemory0
;	COMDAT ??$construct@U_Container_proxy@std@@U12@@?$allocator@U_Container_proxy@std@@@std@@QAEXPAU_Container_proxy@1@$$QAU21@@Z
_TEXT	SEGMENT
tv74 = -220						; size = 4
$T1 = -212						; size = 4
_this$ = -8						; size = 4
__Ptr$ = 8						; size = 4
_<_Args_0>$ = 12					; size = 4
??$construct@U_Container_proxy@std@@U12@@?$allocator@U_Container_proxy@std@@@std@@QAEXPAU_Container_proxy@1@$$QAU21@@Z PROC ; std::allocator<std::_Container_proxy>::construct<std::_Container_proxy,std::_Container_proxy>, COMDAT
; _this$ = ecx

; 654  : 		{	// construct _Objty(_Types...) at _Ptr

	push	ebp
	mov	ebp, esp
	sub	esp, 220				; 000000dcH
	push	ebx
	push	esi
	push	edi
	push	ecx
	lea	edi, DWORD PTR [ebp-220]
	mov	ecx, 55					; 00000037H
	mov	eax, -858993460				; ccccccccH
	rep stosd
	pop	ecx
	mov	DWORD PTR _this$[ebp], ecx

; 655  : 		::new ((void *)_Ptr) _Objty(_STD forward<_Types>(_Args)...);

	mov	eax, DWORD PTR __Ptr$[ebp]
	push	eax
	push	8
	call	??2@YAPAXIPAX@Z				; operator new
	add	esp, 8
	mov	DWORD PTR $T1[ebp], eax
	cmp	DWORD PTR $T1[ebp], 0
	je	SHORT $LN3@construct
	mov	ecx, DWORD PTR _<_Args_0>$[ebp]
	push	ecx
	call	??$forward@U_Container_proxy@std@@@std@@YA$$QAU_Container_proxy@0@AAU10@@Z ; std::forward<std::_Container_proxy>
	add	esp, 4
	mov	edx, DWORD PTR [eax]
	mov	eax, DWORD PTR [eax+4]
	mov	ecx, DWORD PTR $T1[ebp]
	mov	DWORD PTR [ecx], edx
	mov	DWORD PTR [ecx+4], eax
	mov	edx, DWORD PTR $T1[ebp]
	mov	DWORD PTR tv74[ebp], edx
	jmp	SHORT $LN1@construct
$LN3@construct:
	mov	DWORD PTR tv74[ebp], 0
$LN1@construct:

; 656  : 		}

	pop	edi
	pop	esi
	pop	ebx
	add	esp, 220				; 000000dcH
	cmp	ebp, esp
	call	__RTC_CheckEsp
	mov	esp, ebp
	pop	ebp
	ret	8
??$construct@U_Container_proxy@std@@U12@@?$allocator@U_Container_proxy@std@@@std@@QAEXPAU_Container_proxy@1@$$QAU21@@Z ENDP ; std::allocator<std::_Container_proxy>::construct<std::_Container_proxy,std::_Container_proxy>
_TEXT	ENDS
; Function compile flags: /Odtp /RTCsu /ZI
; File d:\appdata\vsp\vc\include\xmemory0
;	COMDAT ??$destroy@U_Container_proxy@std@@@?$allocator@U_Container_proxy@std@@@std@@QAEXPAU_Container_proxy@1@@Z
_TEXT	SEGMENT
_this$ = -8						; size = 4
__Ptr$ = 8						; size = 4
??$destroy@U_Container_proxy@std@@@?$allocator@U_Container_proxy@std@@@std@@QAEXPAU_Container_proxy@1@@Z PROC ; std::allocator<std::_Container_proxy>::destroy<std::_Container_proxy>, COMDAT
; _this$ = ecx

; 661  : 		{	// destroy object at _Ptr

	push	ebp
	mov	ebp, esp
	sub	esp, 204				; 000000ccH
	push	ebx
	push	esi
	push	edi
	push	ecx
	lea	edi, DWORD PTR [ebp-204]
	mov	ecx, 51					; 00000033H
	mov	eax, -858993460				; ccccccccH
	rep stosd
	pop	ecx
	mov	DWORD PTR _this$[ebp], ecx

; 662  : 		_Ptr->~_Uty();
; 663  : 		}

	pop	edi
	pop	esi
	pop	ebx
	mov	esp, ebp
	pop	ebp
	ret	4
??$destroy@U_Container_proxy@std@@@?$allocator@U_Container_proxy@std@@@std@@QAEXPAU_Container_proxy@1@@Z ENDP ; std::allocator<std::_Container_proxy>::destroy<std::_Container_proxy>
_TEXT	ENDS
; Function compile flags: /Odtp /RTCsu /ZI
; File d:\appdata\vsp\vc\include\xmemory0
;	COMDAT ??$construct@PADAAPAD@?$allocator@D@std@@QAEXPAPADAAPAD@Z
_TEXT	SEGMENT
tv73 = -220						; size = 4
$T1 = -212						; size = 4
_this$ = -8						; size = 4
__Ptr$ = 8						; size = 4
_<_Args_0>$ = 12					; size = 4
??$construct@PADAAPAD@?$allocator@D@std@@QAEXPAPADAAPAD@Z PROC ; std::allocator<char>::construct<char *,char * &>, COMDAT
; _this$ = ecx

; 654  : 		{	// construct _Objty(_Types...) at _Ptr

	push	ebp
	mov	ebp, esp
	sub	esp, 220				; 000000dcH
	push	ebx
	push	esi
	push	edi
	push	ecx
	lea	edi, DWORD PTR [ebp-220]
	mov	ecx, 55					; 00000037H
	mov	eax, -858993460				; ccccccccH
	rep stosd
	pop	ecx
	mov	DWORD PTR _this$[ebp], ecx

; 655  : 		::new ((void *)_Ptr) _Objty(_STD forward<_Types>(_Args)...);

	mov	eax, DWORD PTR __Ptr$[ebp]
	push	eax
	push	4
	call	??2@YAPAXIPAX@Z				; operator new
	add	esp, 8
	mov	DWORD PTR $T1[ebp], eax
	cmp	DWORD PTR $T1[ebp], 0
	je	SHORT $LN3@construct
	mov	ecx, DWORD PTR _<_Args_0>$[ebp]
	push	ecx
	call	??$forward@AAPAD@std@@YAAAPADAAPAD@Z	; std::forward<char * &>
	add	esp, 4
	mov	edx, DWORD PTR $T1[ebp]
	mov	eax, DWORD PTR [eax]
	mov	DWORD PTR [edx], eax
	mov	ecx, DWORD PTR $T1[ebp]
	mov	DWORD PTR tv73[ebp], ecx
	jmp	SHORT $LN1@construct
$LN3@construct:
	mov	DWORD PTR tv73[ebp], 0
$LN1@construct:

; 656  : 		}

	pop	edi
	pop	esi
	pop	ebx
	add	esp, 220				; 000000dcH
	cmp	ebp, esp
	call	__RTC_CheckEsp
	mov	esp, ebp
	pop	ebp
	ret	8
??$construct@PADAAPAD@?$allocator@D@std@@QAEXPAPADAAPAD@Z ENDP ; std::allocator<char>::construct<char *,char * &>
_TEXT	ENDS
; Function compile flags: /Odtp /RTCsu /ZI
; File d:\appdata\vsp\vc\include\xmemory0
;	COMDAT ??$destroy@PAD@?$allocator@D@std@@QAEXPAPAD@Z
_TEXT	SEGMENT
_this$ = -8						; size = 4
__Ptr$ = 8						; size = 4
??$destroy@PAD@?$allocator@D@std@@QAEXPAPAD@Z PROC	; std::allocator<char>::destroy<char *>, COMDAT
; _this$ = ecx

; 661  : 		{	// destroy object at _Ptr

	push	ebp
	mov	ebp, esp
	sub	esp, 204				; 000000ccH
	push	ebx
	push	esi
	push	edi
	push	ecx
	lea	edi, DWORD PTR [ebp-204]
	mov	ecx, 51					; 00000033H
	mov	eax, -858993460				; ccccccccH
	rep stosd
	pop	ecx
	mov	DWORD PTR _this$[ebp], ecx

; 662  : 		_Ptr->~_Uty();
; 663  : 		}

	pop	edi
	pop	esi
	pop	ebx
	mov	esp, ebp
	pop	ebp
	ret	4
??$destroy@PAD@?$allocator@D@std@@QAEXPAPAD@Z ENDP	; std::allocator<char>::destroy<char *>
_TEXT	ENDS
; Function compile flags: /Odtp /RTCsu /ZI
; File d:\appdata\vsp\vc\include\xmemory0
;	COMDAT ??$construct@U_Container_proxy@std@@U12@@?$allocator_traits@V?$allocator@U_Container_proxy@std@@@std@@@std@@SAXAAV?$allocator@U_Container_proxy@std@@@1@PAU_Container_proxy@1@$$QAU31@@Z
_TEXT	SEGMENT
__Al$ = 8						; size = 4
__Ptr$ = 12						; size = 4
_<_Args_0>$ = 16					; size = 4
??$construct@U_Container_proxy@std@@U12@@?$allocator_traits@V?$allocator@U_Container_proxy@std@@@std@@@std@@SAXAAV?$allocator@U_Container_proxy@std@@@1@PAU_Container_proxy@1@$$QAU31@@Z PROC ; std::allocator_traits<std::allocator<std::_Container_proxy> >::construct<std::_Container_proxy,std::_Container_proxy>, COMDAT

; 772  : 		{	// construct _Objty(_Types...) at _Ptr

	push	ebp
	mov	ebp, esp
	sub	esp, 192				; 000000c0H
	push	ebx
	push	esi
	push	edi
	lea	edi, DWORD PTR [ebp-192]
	mov	ecx, 48					; 00000030H
	mov	eax, -858993460				; ccccccccH
	rep stosd

; 773  : 		_Al.construct(_Ptr, _STD forward<_Types>(_Args)...);

	mov	eax, DWORD PTR _<_Args_0>$[ebp]
	push	eax
	call	??$forward@U_Container_proxy@std@@@std@@YA$$QAU_Container_proxy@0@AAU10@@Z ; std::forward<std::_Container_proxy>
	add	esp, 4
	push	eax
	mov	ecx, DWORD PTR __Ptr$[ebp]
	push	ecx
	mov	ecx, DWORD PTR __Al$[ebp]
	call	??$construct@U_Container_proxy@std@@U12@@?$allocator@U_Container_proxy@std@@@std@@QAEXPAU_Container_proxy@1@$$QAU21@@Z ; std::allocator<std::_Container_proxy>::construct<std::_Container_proxy,std::_Container_proxy>

; 774  : 		}

	pop	edi
	pop	esi
	pop	ebx
	add	esp, 192				; 000000c0H
	cmp	ebp, esp
	call	__RTC_CheckEsp
	mov	esp, ebp
	pop	ebp
	ret	0
??$construct@U_Container_proxy@std@@U12@@?$allocator_traits@V?$allocator@U_Container_proxy@std@@@std@@@std@@SAXAAV?$allocator@U_Container_proxy@std@@@1@PAU_Container_proxy@1@$$QAU31@@Z ENDP ; std::allocator_traits<std::allocator<std::_Container_proxy> >::construct<std::_Container_proxy,std::_Container_proxy>
_TEXT	ENDS
; Function compile flags: /Odtp /RTCsu /ZI
; File d:\appdata\vsp\vc\include\type_traits
;	COMDAT ??$forward@U_Container_proxy@std@@@std@@YA$$QAU_Container_proxy@0@AAU10@@Z
_TEXT	SEGMENT
__Arg$ = 8						; size = 4
??$forward@U_Container_proxy@std@@@std@@YA$$QAU_Container_proxy@0@AAU10@@Z PROC ; std::forward<std::_Container_proxy>, COMDAT

; 1233 : 	{	// forward an lvalue as either an lvalue or an rvalue

	push	ebp
	mov	ebp, esp
	sub	esp, 192				; 000000c0H
	push	ebx
	push	esi
	push	edi
	lea	edi, DWORD PTR [ebp-192]
	mov	ecx, 48					; 00000030H
	mov	eax, -858993460				; ccccccccH
	rep stosd

; 1234 : 	return (static_cast<_Ty&&>(_Arg));

	mov	eax, DWORD PTR __Arg$[ebp]

; 1235 : 	}

	pop	edi
	pop	esi
	pop	ebx
	mov	esp, ebp
	pop	ebp
	ret	0
??$forward@U_Container_proxy@std@@@std@@YA$$QAU_Container_proxy@0@AAU10@@Z ENDP ; std::forward<std::_Container_proxy>
_TEXT	ENDS
; Function compile flags: /Odtp /RTCsu /ZI
; File d:\appdata\vsp\vc\include\xmemory0
;	COMDAT ??$destroy@U_Container_proxy@std@@@?$allocator_traits@V?$allocator@U_Container_proxy@std@@@std@@@std@@SAXAAV?$allocator@U_Container_proxy@std@@@1@PAU_Container_proxy@1@@Z
_TEXT	SEGMENT
__Al$ = 8						; size = 4
__Ptr$ = 12						; size = 4
??$destroy@U_Container_proxy@std@@@?$allocator_traits@V?$allocator@U_Container_proxy@std@@@std@@@std@@SAXAAV?$allocator@U_Container_proxy@std@@@1@PAU_Container_proxy@1@@Z PROC ; std::allocator_traits<std::allocator<std::_Container_proxy> >::destroy<std::_Container_proxy>, COMDAT

; 779  : 		{	// destroy object at _Ptr

	push	ebp
	mov	ebp, esp
	sub	esp, 192				; 000000c0H
	push	ebx
	push	esi
	push	edi
	lea	edi, DWORD PTR [ebp-192]
	mov	ecx, 48					; 00000030H
	mov	eax, -858993460				; ccccccccH
	rep stosd

; 780  : 		_Al.destroy(_Ptr);

	mov	eax, DWORD PTR __Ptr$[ebp]
	push	eax
	mov	ecx, DWORD PTR __Al$[ebp]
	call	??$destroy@U_Container_proxy@std@@@?$allocator@U_Container_proxy@std@@@std@@QAEXPAU_Container_proxy@1@@Z ; std::allocator<std::_Container_proxy>::destroy<std::_Container_proxy>

; 781  : 		}

	pop	edi
	pop	esi
	pop	ebx
	add	esp, 192				; 000000c0H
	cmp	ebp, esp
	call	__RTC_CheckEsp
	mov	esp, ebp
	pop	ebp
	ret	0
??$destroy@U_Container_proxy@std@@@?$allocator_traits@V?$allocator@U_Container_proxy@std@@@std@@@std@@SAXAAV?$allocator@U_Container_proxy@std@@@1@PAU_Container_proxy@1@@Z ENDP ; std::allocator_traits<std::allocator<std::_Container_proxy> >::destroy<std::_Container_proxy>
_TEXT	ENDS
; Function compile flags: /Odtp /RTCsu /ZI
; File d:\appdata\vsp\vc\include\xmemory0
;	COMDAT ??$construct@PADAAPAD@?$allocator_traits@V?$allocator@D@std@@@std@@SAXAAV?$allocator@D@1@PAPADAAPAD@Z
_TEXT	SEGMENT
__Al$ = 8						; size = 4
__Ptr$ = 12						; size = 4
_<_Args_0>$ = 16					; size = 4
??$construct@PADAAPAD@?$allocator_traits@V?$allocator@D@std@@@std@@SAXAAV?$allocator@D@1@PAPADAAPAD@Z PROC ; std::allocator_traits<std::allocator<char> >::construct<char *,char * &>, COMDAT

; 772  : 		{	// construct _Objty(_Types...) at _Ptr

	push	ebp
	mov	ebp, esp
	sub	esp, 192				; 000000c0H
	push	ebx
	push	esi
	push	edi
	lea	edi, DWORD PTR [ebp-192]
	mov	ecx, 48					; 00000030H
	mov	eax, -858993460				; ccccccccH
	rep stosd

; 773  : 		_Al.construct(_Ptr, _STD forward<_Types>(_Args)...);

	mov	eax, DWORD PTR _<_Args_0>$[ebp]
	push	eax
	call	??$forward@AAPAD@std@@YAAAPADAAPAD@Z	; std::forward<char * &>
	add	esp, 4
	push	eax
	mov	ecx, DWORD PTR __Ptr$[ebp]
	push	ecx
	mov	ecx, DWORD PTR __Al$[ebp]
	call	??$construct@PADAAPAD@?$allocator@D@std@@QAEXPAPADAAPAD@Z ; std::allocator<char>::construct<char *,char * &>

; 774  : 		}

	pop	edi
	pop	esi
	pop	ebx
	add	esp, 192				; 000000c0H
	cmp	ebp, esp
	call	__RTC_CheckEsp
	mov	esp, ebp
	pop	ebp
	ret	0
??$construct@PADAAPAD@?$allocator_traits@V?$allocator@D@std@@@std@@SAXAAV?$allocator@D@1@PAPADAAPAD@Z ENDP ; std::allocator_traits<std::allocator<char> >::construct<char *,char * &>
_TEXT	ENDS
; Function compile flags: /Odtp /RTCsu /ZI
; File d:\appdata\vsp\vc\include\type_traits
;	COMDAT ??$forward@AAPAD@std@@YAAAPADAAPAD@Z
_TEXT	SEGMENT
__Arg$ = 8						; size = 4
??$forward@AAPAD@std@@YAAAPADAAPAD@Z PROC		; std::forward<char * &>, COMDAT

; 1233 : 	{	// forward an lvalue as either an lvalue or an rvalue

	push	ebp
	mov	ebp, esp
	sub	esp, 192				; 000000c0H
	push	ebx
	push	esi
	push	edi
	lea	edi, DWORD PTR [ebp-192]
	mov	ecx, 48					; 00000030H
	mov	eax, -858993460				; ccccccccH
	rep stosd

; 1234 : 	return (static_cast<_Ty&&>(_Arg));

	mov	eax, DWORD PTR __Arg$[ebp]

; 1235 : 	}

	pop	edi
	pop	esi
	pop	ebx
	mov	esp, ebp
	pop	ebp
	ret	0
??$forward@AAPAD@std@@YAAAPADAAPAD@Z ENDP		; std::forward<char * &>
_TEXT	ENDS
; Function compile flags: /Odtp /RTCsu /ZI
; File d:\appdata\vsp\vc\include\xstddef
;	COMDAT ??$_Addressof@D@std@@YAPADAADU?$integral_constant@_N$0A@@0@@Z
_TEXT	SEGMENT
__Val$ = 8						; size = 4
___formal$ = 12						; size = 1
??$_Addressof@D@std@@YAPADAADU?$integral_constant@_N$0A@@0@@Z PROC ; std::_Addressof<char>, COMDAT

; 688  : 	{	// return address of object _Val

	push	ebp
	mov	ebp, esp
	sub	esp, 192				; 000000c0H
	push	ebx
	push	esi
	push	edi
	lea	edi, DWORD PTR [ebp-192]
	mov	ecx, 48					; 00000030H
	mov	eax, -858993460				; ccccccccH
	rep stosd

; 689  : 	return (reinterpret_cast<_Ty *>(

	mov	eax, DWORD PTR __Val$[ebp]

; 690  : 		&const_cast<char&>(
; 691  : 		reinterpret_cast<const volatile char&>(_Val))));
; 692  : 	}

	pop	edi
	pop	esi
	pop	ebx
	mov	esp, ebp
	pop	ebp
	ret	0
??$_Addressof@D@std@@YAPADAADU?$integral_constant@_N$0A@@0@@Z ENDP ; std::_Addressof<char>
_TEXT	ENDS
; Function compile flags: /Odtp /RTCsu /ZI
; File d:\appdata\vsp\vc\include\xmemory0
;	COMDAT ??$destroy@PAD@?$allocator_traits@V?$allocator@D@std@@@std@@SAXAAV?$allocator@D@1@PAPAD@Z
_TEXT	SEGMENT
__Al$ = 8						; size = 4
__Ptr$ = 12						; size = 4
??$destroy@PAD@?$allocator_traits@V?$allocator@D@std@@@std@@SAXAAV?$allocator@D@1@PAPAD@Z PROC ; std::allocator_traits<std::allocator<char> >::destroy<char *>, COMDAT

; 779  : 		{	// destroy object at _Ptr

	push	ebp
	mov	ebp, esp
	sub	esp, 192				; 000000c0H
	push	ebx
	push	esi
	push	edi
	lea	edi, DWORD PTR [ebp-192]
	mov	ecx, 48					; 00000030H
	mov	eax, -858993460				; ccccccccH
	rep stosd

; 780  : 		_Al.destroy(_Ptr);

	mov	eax, DWORD PTR __Ptr$[ebp]
	push	eax
	mov	ecx, DWORD PTR __Al$[ebp]
	call	??$destroy@PAD@?$allocator@D@std@@QAEXPAPAD@Z ; std::allocator<char>::destroy<char *>

; 781  : 		}

	pop	edi
	pop	esi
	pop	ebx
	add	esp, 192				; 000000c0H
	cmp	ebp, esp
	call	__RTC_CheckEsp
	mov	esp, ebp
	pop	ebp
	ret	0
??$destroy@PAD@?$allocator_traits@V?$allocator@D@std@@@std@@SAXAAV?$allocator@D@1@PAPAD@Z ENDP ; std::allocator_traits<std::allocator<char> >::destroy<char *>
_TEXT	ENDS
; Function compile flags: /Odtp /RTCsu /ZI
; File d:\appdata\vsp\vc\include\type_traits
;	COMDAT ??$forward@ABV?$allocator@D@std@@@std@@YAABV?$allocator@D@0@ABV10@@Z
_TEXT	SEGMENT
__Arg$ = 8						; size = 4
??$forward@ABV?$allocator@D@std@@@std@@YAABV?$allocator@D@0@ABV10@@Z PROC ; std::forward<std::allocator<char> const &>, COMDAT

; 1233 : 	{	// forward an lvalue as either an lvalue or an rvalue

	push	ebp
	mov	ebp, esp
	sub	esp, 192				; 000000c0H
	push	ebx
	push	esi
	push	edi
	lea	edi, DWORD PTR [ebp-192]
	mov	ecx, 48					; 00000030H
	mov	eax, -858993460				; ccccccccH
	rep stosd

; 1234 : 	return (static_cast<_Ty&&>(_Arg));

	mov	eax, DWORD PTR __Arg$[ebp]

; 1235 : 	}

	pop	edi
	pop	esi
	pop	ebx
	mov	esp, ebp
	pop	ebp
	ret	0
??$forward@ABV?$allocator@D@std@@@std@@YAABV?$allocator@D@0@ABV10@@Z ENDP ; std::forward<std::allocator<char> const &>
_TEXT	ENDS
; Function compile flags: /Odtp /RTCsu /ZI
; File d:\appdata\vsp\vc\include\type_traits
;	COMDAT ??$forward@V?$allocator@D@std@@@std@@YA$$QAV?$allocator@D@0@AAV10@@Z
_TEXT	SEGMENT
__Arg$ = 8						; size = 4
??$forward@V?$allocator@D@std@@@std@@YA$$QAV?$allocator@D@0@AAV10@@Z PROC ; std::forward<std::allocator<char> >, COMDAT

; 1233 : 	{	// forward an lvalue as either an lvalue or an rvalue

	push	ebp
	mov	ebp, esp
	sub	esp, 192				; 000000c0H
	push	ebx
	push	esi
	push	edi
	lea	edi, DWORD PTR [ebp-192]
	mov	ecx, 48					; 00000030H
	mov	eax, -858993460				; ccccccccH
	rep stosd

; 1234 : 	return (static_cast<_Ty&&>(_Arg));

	mov	eax, DWORD PTR __Arg$[ebp]

; 1235 : 	}

	pop	edi
	pop	esi
	pop	ebx
	mov	esp, ebp
	pop	ebp
	ret	0
??$forward@V?$allocator@D@std@@@std@@YA$$QAV?$allocator@D@0@AAV10@@Z ENDP ; std::forward<std::allocator<char> >
_TEXT	ENDS
; Function compile flags: /Odtp /RTCsu /ZI
; File d:\appdata\vsp\vc\include\ostream
;	COMDAT ??Bsentry@?$basic_ostream@DU?$char_traits@D@std@@@std@@QBE_NXZ
_TEXT	SEGMENT
_this$ = -8						; size = 4
??Bsentry@?$basic_ostream@DU?$char_traits@D@std@@@std@@QBE_NXZ PROC ; std::basic_ostream<char,std::char_traits<char> >::sentry::operator bool, COMDAT
; _this$ = ecx

; 141  : 			{	// test if stream state okay

	push	ebp
	mov	ebp, esp
	sub	esp, 204				; 000000ccH
	push	ebx
	push	esi
	push	edi
	push	ecx
	lea	edi, DWORD PTR [ebp-204]
	mov	ecx, 51					; 00000033H
	mov	eax, -858993460				; ccccccccH
	rep stosd
	pop	ecx
	mov	DWORD PTR _this$[ebp], ecx

; 142  : 			return (_Ok);

	mov	eax, DWORD PTR _this$[ebp]
	mov	al, BYTE PTR [eax+4]

; 143  : 			}

	pop	edi
	pop	esi
	pop	ebx
	mov	esp, ebp
	pop	ebp
	ret	0
??Bsentry@?$basic_ostream@DU?$char_traits@D@std@@@std@@QBE_NXZ ENDP ; std::basic_ostream<char,std::char_traits<char> >::sentry::operator bool
_TEXT	ENDS
; Function compile flags: /Odtp /RTCsu /ZI
; File d:\appdata\vsp\vc\include\ostream
;	COMDAT ??1sentry@?$basic_ostream@DU?$char_traits@D@std@@@std@@QAE@XZ
_TEXT	SEGMENT
_this$ = -20						; size = 4
__$EHRec$ = -12						; size = 12
??1sentry@?$basic_ostream@DU?$char_traits@D@std@@@std@@QAE@XZ PROC ; std::basic_ostream<char,std::char_traits<char> >::sentry::~sentry, COMDAT
; _this$ = ecx

; 130  : 			{	// destroy the object

	push	ebp
	mov	ebp, esp
	push	-1
	push	__ehhandler$??1sentry@?$basic_ostream@DU?$char_traits@D@std@@@std@@QAE@XZ
	mov	eax, DWORD PTR fs:0
	push	eax
	sub	esp, 204				; 000000ccH
	push	ebx
	push	esi
	push	edi
	push	ecx
	lea	edi, DWORD PTR [ebp-216]
	mov	ecx, 51					; 00000033H
	mov	eax, -858993460				; ccccccccH
	rep stosd
	pop	ecx
	mov	eax, DWORD PTR ___security_cookie
	xor	eax, ebp
	push	eax
	lea	eax, DWORD PTR __$EHRec$[ebp]
	mov	DWORD PTR fs:0, eax
	mov	DWORD PTR _this$[ebp], ecx

; 131  :  #if _HAS_EXCEPTIONS
; 132  : 			if (!_XSTD uncaught_exception())

	mov	esi, esp
	call	DWORD PTR __imp_?uncaught_exception@std@@YA_NXZ
	cmp	esi, esp
	call	__RTC_CheckEsp
	movzx	eax, al
	test	eax, eax
	jne	SHORT $LN1@sentry

; 133  : 				this->_Myostr._Osfx();

	mov	esi, esp
	mov	eax, DWORD PTR _this$[ebp]
	mov	ecx, DWORD PTR [eax]
	call	DWORD PTR __imp_?_Osfx@?$basic_ostream@DU?$char_traits@D@std@@@std@@QAEXXZ
	cmp	esi, esp
	call	__RTC_CheckEsp
$LN1@sentry:

; 134  : 
; 135  :  #else /* _HAS_EXCEPTIONS */
; 136  : 			this->_Myostr._Osfx();
; 137  :  #endif /* _HAS_EXCEPTIONS */
; 138  : 			}

	mov	ecx, DWORD PTR _this$[ebp]
	call	??1_Sentry_base@?$basic_ostream@DU?$char_traits@D@std@@@std@@QAE@XZ ; std::basic_ostream<char,std::char_traits<char> >::_Sentry_base::~_Sentry_base
	mov	ecx, DWORD PTR __$EHRec$[ebp]
	mov	DWORD PTR fs:0, ecx
	pop	ecx
	pop	edi
	pop	esi
	pop	ebx
	add	esp, 216				; 000000d8H
	cmp	ebp, esp
	call	__RTC_CheckEsp
	mov	esp, ebp
	pop	ebp
	ret	0
_TEXT	ENDS
;	COMDAT text$x
text$x	SEGMENT
__ehhandler$??1sentry@?$basic_ostream@DU?$char_traits@D@std@@@std@@QAE@XZ:
	mov	edx, DWORD PTR [esp+8]
	lea	eax, DWORD PTR [edx+12]
	mov	ecx, DWORD PTR [edx-220]
	xor	ecx, eax
	call	@__security_check_cookie@4
	mov	eax, OFFSET __ehfuncinfo$??1sentry@?$basic_ostream@DU?$char_traits@D@std@@@std@@QAE@XZ
	jmp	___CxxFrameHandler3
text$x	ENDS
??1sentry@?$basic_ostream@DU?$char_traits@D@std@@@std@@QAE@XZ ENDP ; std::basic_ostream<char,std::char_traits<char> >::sentry::~sentry
; Function compile flags: /Odtp /RTCsu /ZI
; File d:\appdata\vsp\vc\include\ostream
;	COMDAT ??0sentry@?$basic_ostream@DU?$char_traits@D@std@@@std@@QAE@AAV12@@Z
_TEXT	SEGMENT
_this$ = -20						; size = 4
__$EHRec$ = -12						; size = 12
__Ostr$ = 8						; size = 4
??0sentry@?$basic_ostream@DU?$char_traits@D@std@@@std@@QAE@AAV12@@Z PROC ; std::basic_ostream<char,std::char_traits<char> >::sentry::sentry, COMDAT
; _this$ = ecx

; 123  : 			{	// construct locking and testing stream

	push	ebp
	mov	ebp, esp
	push	-1
	push	__ehhandler$??0sentry@?$basic_ostream@DU?$char_traits@D@std@@@std@@QAE@AAV12@@Z
	mov	eax, DWORD PTR fs:0
	push	eax
	sub	esp, 204				; 000000ccH
	push	ebx
	push	esi
	push	edi
	push	ecx
	lea	edi, DWORD PTR [ebp-216]
	mov	ecx, 51					; 00000033H
	mov	eax, -858993460				; ccccccccH
	rep stosd
	pop	ecx
	mov	eax, DWORD PTR ___security_cookie
	xor	eax, ebp
	push	eax
	lea	eax, DWORD PTR __$EHRec$[ebp]
	mov	DWORD PTR fs:0, eax
	mov	DWORD PTR _this$[ebp], ecx

; 122  : 			: _Sentry_base(_Ostr)

	mov	eax, DWORD PTR __Ostr$[ebp]
	push	eax
	mov	ecx, DWORD PTR _this$[ebp]
	call	??0_Sentry_base@?$basic_ostream@DU?$char_traits@D@std@@@std@@QAE@AAV12@@Z ; std::basic_ostream<char,std::char_traits<char> >::_Sentry_base::_Sentry_base
	mov	DWORD PTR __$EHRec$[ebp+8], 0

; 124  : 			if (_Ostr.good() && _Ostr.tie() != 0 && _Ostr.tie() != &_Ostr)

	mov	eax, DWORD PTR __Ostr$[ebp]
	mov	ecx, DWORD PTR [eax]
	mov	edx, DWORD PTR __Ostr$[ebp]
	add	edx, DWORD PTR [ecx+4]
	mov	esi, esp
	mov	ecx, edx
	call	DWORD PTR __imp_?good@ios_base@std@@QBE_NXZ
	cmp	esi, esp
	call	__RTC_CheckEsp
	movzx	eax, al
	test	eax, eax
	je	SHORT $LN2@sentry
	mov	eax, DWORD PTR __Ostr$[ebp]
	mov	ecx, DWORD PTR [eax]
	mov	edx, DWORD PTR __Ostr$[ebp]
	add	edx, DWORD PTR [ecx+4]
	mov	esi, esp
	mov	ecx, edx
	call	DWORD PTR __imp_?tie@?$basic_ios@DU?$char_traits@D@std@@@std@@QBEPAV?$basic_ostream@DU?$char_traits@D@std@@@2@XZ
	cmp	esi, esp
	call	__RTC_CheckEsp
	test	eax, eax
	je	SHORT $LN2@sentry
	mov	eax, DWORD PTR __Ostr$[ebp]
	mov	ecx, DWORD PTR [eax]
	mov	edx, DWORD PTR __Ostr$[ebp]
	add	edx, DWORD PTR [ecx+4]
	mov	esi, esp
	mov	ecx, edx
	call	DWORD PTR __imp_?tie@?$basic_ios@DU?$char_traits@D@std@@@std@@QBEPAV?$basic_ostream@DU?$char_traits@D@std@@@2@XZ
	cmp	esi, esp
	call	__RTC_CheckEsp
	cmp	eax, DWORD PTR __Ostr$[ebp]
	je	SHORT $LN2@sentry

; 125  : 				_Ostr.tie()->flush();

	mov	eax, DWORD PTR __Ostr$[ebp]
	mov	ecx, DWORD PTR [eax]
	mov	edx, DWORD PTR __Ostr$[ebp]
	add	edx, DWORD PTR [ecx+4]
	mov	esi, esp
	mov	ecx, edx
	call	DWORD PTR __imp_?tie@?$basic_ios@DU?$char_traits@D@std@@@std@@QBEPAV?$basic_ostream@DU?$char_traits@D@std@@@2@XZ
	cmp	esi, esp
	call	__RTC_CheckEsp
	mov	esi, esp
	mov	ecx, eax
	call	DWORD PTR __imp_?flush@?$basic_ostream@DU?$char_traits@D@std@@@std@@QAEAAV12@XZ
	cmp	esi, esp
	call	__RTC_CheckEsp
$LN2@sentry:

; 126  : 			_Ok = _Ostr.good();	// store test only after flushing tie

	mov	eax, DWORD PTR __Ostr$[ebp]
	mov	ecx, DWORD PTR [eax]
	mov	edx, DWORD PTR __Ostr$[ebp]
	add	edx, DWORD PTR [ecx+4]
	mov	esi, esp
	mov	ecx, edx
	call	DWORD PTR __imp_?good@ios_base@std@@QBE_NXZ
	cmp	esi, esp
	call	__RTC_CheckEsp
	mov	ecx, DWORD PTR _this$[ebp]
	mov	BYTE PTR [ecx+4], al

; 127  : 			}

	mov	DWORD PTR __$EHRec$[ebp+8], -1
	mov	eax, DWORD PTR _this$[ebp]
	mov	ecx, DWORD PTR __$EHRec$[ebp]
	mov	DWORD PTR fs:0, ecx
	pop	ecx
	pop	edi
	pop	esi
	pop	ebx
	add	esp, 216				; 000000d8H
	cmp	ebp, esp
	call	__RTC_CheckEsp
	mov	esp, ebp
	pop	ebp
	ret	4
_TEXT	ENDS
;	COMDAT text$x
text$x	SEGMENT
__unwindfunclet$??0sentry@?$basic_ostream@DU?$char_traits@D@std@@@std@@QAE@AAV12@@Z$0:
	mov	ecx, DWORD PTR _this$[ebp]
	jmp	??1_Sentry_base@?$basic_ostream@DU?$char_traits@D@std@@@std@@QAE@XZ ; std::basic_ostream<char,std::char_traits<char> >::_Sentry_base::~_Sentry_base
__ehhandler$??0sentry@?$basic_ostream@DU?$char_traits@D@std@@@std@@QAE@AAV12@@Z:
	mov	edx, DWORD PTR [esp+8]
	lea	eax, DWORD PTR [edx+12]
	mov	ecx, DWORD PTR [edx-220]
	xor	ecx, eax
	call	@__security_check_cookie@4
	mov	eax, OFFSET __ehfuncinfo$??0sentry@?$basic_ostream@DU?$char_traits@D@std@@@std@@QAE@AAV12@@Z
	jmp	___CxxFrameHandler3
text$x	ENDS
??0sentry@?$basic_ostream@DU?$char_traits@D@std@@@std@@QAE@AAV12@@Z ENDP ; std::basic_ostream<char,std::char_traits<char> >::sentry::sentry
; Function compile flags: /Odtp /RTCsu /ZI
; File d:\appdata\vsp\vc\include\ostream
;	COMDAT ??1_Sentry_base@?$basic_ostream@DU?$char_traits@D@std@@@std@@QAE@XZ
_TEXT	SEGMENT
tv92 = -224						; size = 4
tv86 = -220						; size = 4
tv72 = -220						; size = 4
_this$ = -20						; size = 4
__$EHRec$ = -12						; size = 12
??1_Sentry_base@?$basic_ostream@DU?$char_traits@D@std@@@std@@QAE@XZ PROC ; std::basic_ostream<char,std::char_traits<char> >::_Sentry_base::~_Sentry_base, COMDAT
; _this$ = ecx

; 106  : 			{	// destroy after unlocking

	push	ebp
	mov	ebp, esp
	push	-1
	push	__ehhandler$??1_Sentry_base@?$basic_ostream@DU?$char_traits@D@std@@@std@@QAE@XZ
	mov	eax, DWORD PTR fs:0
	push	eax
	sub	esp, 212				; 000000d4H
	push	ebx
	push	esi
	push	edi
	push	ecx
	lea	edi, DWORD PTR [ebp-224]
	mov	ecx, 53					; 00000035H
	mov	eax, -858993460				; ccccccccH
	rep stosd
	pop	ecx
	mov	eax, DWORD PTR ___security_cookie
	xor	eax, ebp
	push	eax
	lea	eax, DWORD PTR __$EHRec$[ebp]
	mov	DWORD PTR fs:0, eax
	mov	DWORD PTR _this$[ebp], ecx

; 107  : 			if (_Myostr.rdbuf() != 0)

	mov	eax, DWORD PTR _this$[ebp]
	mov	ecx, DWORD PTR [eax]
	mov	DWORD PTR tv72[ebp], ecx
	mov	edx, DWORD PTR tv72[ebp]
	mov	eax, DWORD PTR [edx]
	mov	ecx, DWORD PTR tv72[ebp]
	add	ecx, DWORD PTR [eax+4]
	mov	esi, esp
	call	DWORD PTR __imp_?rdbuf@?$basic_ios@DU?$char_traits@D@std@@@std@@QBEPAV?$basic_streambuf@DU?$char_traits@D@std@@@2@XZ
	cmp	esi, esp
	call	__RTC_CheckEsp
	test	eax, eax
	je	SHORT $LN3@Sentry_bas

; 108  : 				_Myostr.rdbuf()->_Unlock();

	mov	eax, DWORD PTR _this$[ebp]
	mov	ecx, DWORD PTR [eax]
	mov	DWORD PTR tv86[ebp], ecx
	mov	edx, DWORD PTR tv86[ebp]
	mov	eax, DWORD PTR [edx]
	mov	ecx, DWORD PTR tv86[ebp]
	add	ecx, DWORD PTR [eax+4]
	mov	esi, esp
	call	DWORD PTR __imp_?rdbuf@?$basic_ios@DU?$char_traits@D@std@@@std@@QBEPAV?$basic_streambuf@DU?$char_traits@D@std@@@2@XZ
	cmp	esi, esp
	call	__RTC_CheckEsp
	mov	DWORD PTR tv92[ebp], eax
	mov	ecx, DWORD PTR tv92[ebp]
	mov	edx, DWORD PTR [ecx]
	mov	esi, esp
	mov	ecx, DWORD PTR tv92[ebp]
	mov	eax, DWORD PTR [edx+8]
	call	eax
	cmp	esi, esp
	call	__RTC_CheckEsp
$LN3@Sentry_bas:

; 109  : 			}

	mov	ecx, DWORD PTR __$EHRec$[ebp]
	mov	DWORD PTR fs:0, ecx
	pop	ecx
	pop	edi
	pop	esi
	pop	ebx
	add	esp, 224				; 000000e0H
	cmp	ebp, esp
	call	__RTC_CheckEsp
	mov	esp, ebp
	pop	ebp
	ret	0
_TEXT	ENDS
;	COMDAT text$x
text$x	SEGMENT
__ehhandler$??1_Sentry_base@?$basic_ostream@DU?$char_traits@D@std@@@std@@QAE@XZ:
	mov	edx, DWORD PTR [esp+8]
	lea	eax, DWORD PTR [edx+12]
	mov	ecx, DWORD PTR [edx-228]
	xor	ecx, eax
	call	@__security_check_cookie@4
	mov	eax, OFFSET __ehfuncinfo$??1_Sentry_base@?$basic_ostream@DU?$char_traits@D@std@@@std@@QAE@XZ
	jmp	___CxxFrameHandler3
text$x	ENDS
??1_Sentry_base@?$basic_ostream@DU?$char_traits@D@std@@@std@@QAE@XZ ENDP ; std::basic_ostream<char,std::char_traits<char> >::_Sentry_base::~_Sentry_base
; Function compile flags: /Odtp /RTCsu /ZI
; File d:\appdata\vsp\vc\include\ostream
;	COMDAT ??0_Sentry_base@?$basic_ostream@DU?$char_traits@D@std@@@std@@QAE@AAV12@@Z
_TEXT	SEGMENT
tv93 = -212						; size = 4
tv87 = -208						; size = 4
tv73 = -208						; size = 4
_this$ = -8						; size = 4
__Ostr$ = 8						; size = 4
??0_Sentry_base@?$basic_ostream@DU?$char_traits@D@std@@@std@@QAE@AAV12@@Z PROC ; std::basic_ostream<char,std::char_traits<char> >::_Sentry_base::_Sentry_base, COMDAT
; _this$ = ecx

; 100  : 			{	// lock the stream buffer, if there

	push	ebp
	mov	ebp, esp
	sub	esp, 212				; 000000d4H
	push	ebx
	push	esi
	push	edi
	push	ecx
	lea	edi, DWORD PTR [ebp-212]
	mov	ecx, 53					; 00000035H
	mov	eax, -858993460				; ccccccccH
	rep stosd
	pop	ecx
	mov	DWORD PTR _this$[ebp], ecx

; 99   : 			: _Myostr(_Ostr)

	mov	eax, DWORD PTR _this$[ebp]
	mov	ecx, DWORD PTR __Ostr$[ebp]
	mov	DWORD PTR [eax], ecx

; 101  : 			if (_Myostr.rdbuf() != 0)

	mov	eax, DWORD PTR _this$[ebp]
	mov	ecx, DWORD PTR [eax]
	mov	DWORD PTR tv73[ebp], ecx
	mov	edx, DWORD PTR tv73[ebp]
	mov	eax, DWORD PTR [edx]
	mov	ecx, DWORD PTR tv73[ebp]
	add	ecx, DWORD PTR [eax+4]
	mov	esi, esp
	call	DWORD PTR __imp_?rdbuf@?$basic_ios@DU?$char_traits@D@std@@@std@@QBEPAV?$basic_streambuf@DU?$char_traits@D@std@@@2@XZ
	cmp	esi, esp
	call	__RTC_CheckEsp
	test	eax, eax
	je	SHORT $LN1@Sentry_bas

; 102  : 				_Myostr.rdbuf()->_Lock();

	mov	eax, DWORD PTR _this$[ebp]
	mov	ecx, DWORD PTR [eax]
	mov	DWORD PTR tv87[ebp], ecx
	mov	edx, DWORD PTR tv87[ebp]
	mov	eax, DWORD PTR [edx]
	mov	ecx, DWORD PTR tv87[ebp]
	add	ecx, DWORD PTR [eax+4]
	mov	esi, esp
	call	DWORD PTR __imp_?rdbuf@?$basic_ios@DU?$char_traits@D@std@@@std@@QBEPAV?$basic_streambuf@DU?$char_traits@D@std@@@2@XZ
	cmp	esi, esp
	call	__RTC_CheckEsp
	mov	DWORD PTR tv93[ebp], eax
	mov	ecx, DWORD PTR tv93[ebp]
	mov	edx, DWORD PTR [ecx]
	mov	esi, esp
	mov	ecx, DWORD PTR tv93[ebp]
	mov	eax, DWORD PTR [edx+4]
	call	eax
	cmp	esi, esp
	call	__RTC_CheckEsp
$LN1@Sentry_bas:

; 103  : 			}

	mov	eax, DWORD PTR _this$[ebp]
	pop	edi
	pop	esi
	pop	ebx
	add	esp, 212				; 000000d4H
	cmp	ebp, esp
	call	__RTC_CheckEsp
	mov	esp, ebp
	pop	ebp
	ret	4
??0_Sentry_base@?$basic_ostream@DU?$char_traits@D@std@@@std@@QAE@AAV12@@Z ENDP ; std::basic_ostream<char,std::char_traits<char> >::_Sentry_base::_Sentry_base
_TEXT	ENDS
; Function compile flags: /Odtp /RTCsu /ZI
; File d:\appdata\vsp\vc\include\type_traits
;	COMDAT ??$move@AAV?$basic_string@DU?$char_traits@D@std@@V?$allocator@D@2@@std@@@std@@YA$$QAV?$basic_string@DU?$char_traits@D@std@@V?$allocator@D@2@@0@AAV10@@Z
_TEXT	SEGMENT
__Arg$ = 8						; size = 4
??$move@AAV?$basic_string@DU?$char_traits@D@std@@V?$allocator@D@2@@std@@@std@@YA$$QAV?$basic_string@DU?$char_traits@D@std@@V?$allocator@D@2@@0@AAV10@@Z PROC ; std::move<std::basic_string<char,std::char_traits<char>,std::allocator<char> > &>, COMDAT

; 1249 : 	{	// forward _Arg as movable

	push	ebp
	mov	ebp, esp
	sub	esp, 192				; 000000c0H
	push	ebx
	push	esi
	push	edi
	lea	edi, DWORD PTR [ebp-192]
	mov	ecx, 48					; 00000030H
	mov	eax, -858993460				; ccccccccH
	rep stosd

; 1250 : 	return (static_cast<typename remove_reference<_Ty>::type&&>(_Arg));

	mov	eax, DWORD PTR __Arg$[ebp]

; 1251 : 	}

	pop	edi
	pop	esi
	pop	ebx
	mov	esp, ebp
	pop	ebp
	ret	0
??$move@AAV?$basic_string@DU?$char_traits@D@std@@V?$allocator@D@2@@std@@@std@@YA$$QAV?$basic_string@DU?$char_traits@D@std@@V?$allocator@D@2@@0@AAV10@@Z ENDP ; std::move<std::basic_string<char,std::char_traits<char>,std::allocator<char> > &>
_TEXT	ENDS
; Function compile flags: /Odtp /RTCsu /ZI
; File d:\appdata\vsp\vc\include\xmemory0
;	COMDAT ??$?0D@?$allocator@U_Container_proxy@std@@@std@@QAE@ABV?$allocator@D@1@@Z
_TEXT	SEGMENT
_this$ = -8						; size = 4
___formal$ = 8						; size = 4
??$?0D@?$allocator@U_Container_proxy@std@@@std@@QAE@ABV?$allocator@D@1@@Z PROC ; std::allocator<std::_Container_proxy>::allocator<std::_Container_proxy><char>, COMDAT
; _this$ = ecx

; 627  : 		{	// construct from a related allocator (do nothing)

	push	ebp
	mov	ebp, esp
	sub	esp, 204				; 000000ccH
	push	ebx
	push	esi
	push	edi
	push	ecx
	lea	edi, DWORD PTR [ebp-204]
	mov	ecx, 51					; 00000033H
	mov	eax, -858993460				; ccccccccH
	rep stosd
	pop	ecx
	mov	DWORD PTR _this$[ebp], ecx

; 628  : 		}

	mov	eax, DWORD PTR _this$[ebp]
	pop	edi
	pop	esi
	pop	ebx
	mov	esp, ebp
	pop	ebp
	ret	4
??$?0D@?$allocator@U_Container_proxy@std@@@std@@QAE@ABV?$allocator@D@1@@Z ENDP ; std::allocator<std::_Container_proxy>::allocator<std::_Container_proxy><char>
_TEXT	ENDS
; Function compile flags: /Odtp /RTCsu /ZI
; File d:\appdata\vsp\vc\include\xmemory0
;	COMDAT ??$?0U?$_Wrap_alloc@V?$allocator@D@std@@@std@@@?$_Wrap_alloc@V?$allocator@U_Container_proxy@std@@@std@@@std@@QAE@AAU?$_Wrap_alloc@V?$allocator@D@std@@@1@@Z
_TEXT	SEGMENT
_this$ = -8						; size = 4
__Right$ = 8						; size = 4
??$?0U?$_Wrap_alloc@V?$allocator@D@std@@@std@@@?$_Wrap_alloc@V?$allocator@U_Container_proxy@std@@@std@@@std@@QAE@AAU?$_Wrap_alloc@V?$allocator@D@std@@@1@@Z PROC ; std::_Wrap_alloc<std::allocator<std::_Container_proxy> >::_Wrap_alloc<std::allocator<std::_Container_proxy> ><std::_Wrap_alloc<std::allocator<char> > >, COMDAT
; _this$ = ecx

; 874  : 		{	// construct from a related allocator

	push	ebp
	mov	ebp, esp
	sub	esp, 204				; 000000ccH
	push	ebx
	push	esi
	push	edi
	push	ecx
	lea	edi, DWORD PTR [ebp-204]
	mov	ecx, 51					; 00000033H
	mov	eax, -858993460				; ccccccccH
	rep stosd
	pop	ecx
	mov	DWORD PTR _this$[ebp], ecx

; 873  : 		: _Mybase(_Right)

	mov	eax, DWORD PTR __Right$[ebp]
	push	eax
	mov	ecx, DWORD PTR _this$[ebp]
	call	??$?0D@?$allocator@U_Container_proxy@std@@@std@@QAE@ABV?$allocator@D@1@@Z ; std::allocator<std::_Container_proxy>::allocator<std::_Container_proxy><char>

; 875  : 		}

	mov	eax, DWORD PTR _this$[ebp]
	pop	edi
	pop	esi
	pop	ebx
	add	esp, 204				; 000000ccH
	cmp	ebp, esp
	call	__RTC_CheckEsp
	mov	esp, ebp
	pop	ebp
	ret	4
??$?0U?$_Wrap_alloc@V?$allocator@D@std@@@std@@@?$_Wrap_alloc@V?$allocator@U_Container_proxy@std@@@std@@@std@@QAE@AAU?$_Wrap_alloc@V?$allocator@D@std@@@1@@Z ENDP ; std::_Wrap_alloc<std::allocator<std::_Container_proxy> >::_Wrap_alloc<std::allocator<std::_Container_proxy> ><std::_Wrap_alloc<std::allocator<char> > >
_TEXT	ENDS
; Function compile flags: /Odtp /RTCsu /ZI
; File d:\appdata\vsp\vc\include\xmemory0
;	COMDAT ??$construct@U_Container_proxy@std@@U12@@?$_Wrap_alloc@V?$allocator@U_Container_proxy@std@@@std@@@std@@QAEXPAU_Container_proxy@1@$$QAU21@@Z
_TEXT	SEGMENT
_this$ = -8						; size = 4
__Ptr$ = 8						; size = 4
_<_Args_0>$ = 12					; size = 4
??$construct@U_Container_proxy@std@@U12@@?$_Wrap_alloc@V?$allocator@U_Container_proxy@std@@@std@@@std@@QAEXPAU_Container_proxy@1@$$QAU21@@Z PROC ; std::_Wrap_alloc<std::allocator<std::_Container_proxy> >::construct<std::_Container_proxy,std::_Container_proxy>, COMDAT
; _this$ = ecx

; 916  : 		{	// construct _Ty(_Types...) at _Ptr

	push	ebp
	mov	ebp, esp
	sub	esp, 204				; 000000ccH
	push	ebx
	push	esi
	push	edi
	push	ecx
	lea	edi, DWORD PTR [ebp-204]
	mov	ecx, 51					; 00000033H
	mov	eax, -858993460				; ccccccccH
	rep stosd
	pop	ecx
	mov	DWORD PTR _this$[ebp], ecx

; 917  : 		_Mytraits::construct(*this, _Ptr,

	mov	eax, DWORD PTR _<_Args_0>$[ebp]
	push	eax
	call	??$forward@U_Container_proxy@std@@@std@@YA$$QAU_Container_proxy@0@AAU10@@Z ; std::forward<std::_Container_proxy>
	add	esp, 4
	push	eax
	mov	ecx, DWORD PTR __Ptr$[ebp]
	push	ecx
	mov	edx, DWORD PTR _this$[ebp]
	push	edx
	call	??$construct@U_Container_proxy@std@@U12@@?$allocator_traits@V?$allocator@U_Container_proxy@std@@@std@@@std@@SAXAAV?$allocator@U_Container_proxy@std@@@1@PAU_Container_proxy@1@$$QAU31@@Z ; std::allocator_traits<std::allocator<std::_Container_proxy> >::construct<std::_Container_proxy,std::_Container_proxy>
	add	esp, 12					; 0000000cH

; 918  : 			_STD forward<_Types>(_Args)...);
; 919  : 		}

	pop	edi
	pop	esi
	pop	ebx
	add	esp, 204				; 000000ccH
	cmp	ebp, esp
	call	__RTC_CheckEsp
	mov	esp, ebp
	pop	ebp
	ret	8
??$construct@U_Container_proxy@std@@U12@@?$_Wrap_alloc@V?$allocator@U_Container_proxy@std@@@std@@@std@@QAEXPAU_Container_proxy@1@$$QAU21@@Z ENDP ; std::_Wrap_alloc<std::allocator<std::_Container_proxy> >::construct<std::_Container_proxy,std::_Container_proxy>
_TEXT	ENDS
; Function compile flags: /Odtp /RTCsu /ZI
; File d:\appdata\vsp\vc\include\xmemory0
;	COMDAT ??$destroy@U_Container_proxy@std@@@?$_Wrap_alloc@V?$allocator@U_Container_proxy@std@@@std@@@std@@QAEXPAU_Container_proxy@1@@Z
_TEXT	SEGMENT
_this$ = -8						; size = 4
__Ptr$ = 8						; size = 4
??$destroy@U_Container_proxy@std@@@?$_Wrap_alloc@V?$allocator@U_Container_proxy@std@@@std@@@std@@QAEXPAU_Container_proxy@1@@Z PROC ; std::_Wrap_alloc<std::allocator<std::_Container_proxy> >::destroy<std::_Container_proxy>, COMDAT
; _this$ = ecx

; 924  : 		{	// destroy object at _Ptr

	push	ebp
	mov	ebp, esp
	sub	esp, 204				; 000000ccH
	push	ebx
	push	esi
	push	edi
	push	ecx
	lea	edi, DWORD PTR [ebp-204]
	mov	ecx, 51					; 00000033H
	mov	eax, -858993460				; ccccccccH
	rep stosd
	pop	ecx
	mov	DWORD PTR _this$[ebp], ecx

; 925  : 		_Mytraits::destroy(*this, _Ptr);

	mov	eax, DWORD PTR __Ptr$[ebp]
	push	eax
	mov	ecx, DWORD PTR _this$[ebp]
	push	ecx
	call	??$destroy@U_Container_proxy@std@@@?$allocator_traits@V?$allocator@U_Container_proxy@std@@@std@@@std@@SAXAAV?$allocator@U_Container_proxy@std@@@1@PAU_Container_proxy@1@@Z ; std::allocator_traits<std::allocator<std::_Container_proxy> >::destroy<std::_Container_proxy>
	add	esp, 8

; 926  : 		}

	pop	edi
	pop	esi
	pop	ebx
	add	esp, 204				; 000000ccH
	cmp	ebp, esp
	call	__RTC_CheckEsp
	mov	esp, ebp
	pop	ebp
	ret	4
??$destroy@U_Container_proxy@std@@@?$_Wrap_alloc@V?$allocator@U_Container_proxy@std@@@std@@@std@@QAEXPAU_Container_proxy@1@@Z ENDP ; std::_Wrap_alloc<std::allocator<std::_Container_proxy> >::destroy<std::_Container_proxy>
_TEXT	ENDS
; Function compile flags: /Odtp /RTCsu /ZI
; File d:\appdata\vsp\vc\include\xmemory0
;	COMDAT ?deallocate@?$_Wrap_alloc@V?$allocator@U_Container_proxy@std@@@std@@@std@@QAEXPAU_Container_proxy@2@I@Z
_TEXT	SEGMENT
_this$ = -8						; size = 4
__Ptr$ = 8						; size = 4
__Count$ = 12						; size = 4
?deallocate@?$_Wrap_alloc@V?$allocator@U_Container_proxy@std@@@std@@@std@@QAEXPAU_Container_proxy@2@I@Z PROC ; std::_Wrap_alloc<std::allocator<std::_Container_proxy> >::deallocate, COMDAT
; _this$ = ecx

; 908  : 		{	// deallocate object at _Ptr, ignore size

	push	ebp
	mov	ebp, esp
	sub	esp, 204				; 000000ccH
	push	ebx
	push	esi
	push	edi
	push	ecx
	lea	edi, DWORD PTR [ebp-204]
	mov	ecx, 51					; 00000033H
	mov	eax, -858993460				; ccccccccH
	rep stosd
	pop	ecx
	mov	DWORD PTR _this$[ebp], ecx

; 909  : 		_Mybase::deallocate(_Ptr, _Count);

	mov	eax, DWORD PTR __Count$[ebp]
	push	eax
	mov	ecx, DWORD PTR __Ptr$[ebp]
	push	ecx
	mov	ecx, DWORD PTR _this$[ebp]
	call	?deallocate@?$allocator@U_Container_proxy@std@@@std@@QAEXPAU_Container_proxy@2@I@Z ; std::allocator<std::_Container_proxy>::deallocate

; 910  : 		}

	pop	edi
	pop	esi
	pop	ebx
	add	esp, 204				; 000000ccH
	cmp	ebp, esp
	call	__RTC_CheckEsp
	mov	esp, ebp
	pop	ebp
	ret	8
?deallocate@?$_Wrap_alloc@V?$allocator@U_Container_proxy@std@@@std@@@std@@QAEXPAU_Container_proxy@2@I@Z ENDP ; std::_Wrap_alloc<std::allocator<std::_Container_proxy> >::deallocate
_TEXT	ENDS
; Function compile flags: /Odtp /RTCsu /ZI
; File d:\appdata\vsp\vc\include\xmemory0
;	COMDAT ?allocate@?$_Wrap_alloc@V?$allocator@U_Container_proxy@std@@@std@@@std@@QAEPAU_Container_proxy@2@I@Z
_TEXT	SEGMENT
_this$ = -8						; size = 4
__Count$ = 8						; size = 4
?allocate@?$_Wrap_alloc@V?$allocator@U_Container_proxy@std@@@std@@@std@@QAEPAU_Container_proxy@2@I@Z PROC ; std::_Wrap_alloc<std::allocator<std::_Container_proxy> >::allocate, COMDAT
; _this$ = ecx

; 897  : 		{	// allocate array of _Count elements

	push	ebp
	mov	ebp, esp
	sub	esp, 204				; 000000ccH
	push	ebx
	push	esi
	push	edi
	push	ecx
	lea	edi, DWORD PTR [ebp-204]
	mov	ecx, 51					; 00000033H
	mov	eax, -858993460				; ccccccccH
	rep stosd
	pop	ecx
	mov	DWORD PTR _this$[ebp], ecx

; 898  : 		return (_Mybase::allocate(_Count));

	mov	eax, DWORD PTR __Count$[ebp]
	push	eax
	mov	ecx, DWORD PTR _this$[ebp]
	call	?allocate@?$allocator@U_Container_proxy@std@@@std@@QAEPAU_Container_proxy@2@I@Z ; std::allocator<std::_Container_proxy>::allocate

; 899  : 		}

	pop	edi
	pop	esi
	pop	ebx
	add	esp, 204				; 000000ccH
	cmp	ebp, esp
	call	__RTC_CheckEsp
	mov	esp, ebp
	pop	ebp
	ret	4
?allocate@?$_Wrap_alloc@V?$allocator@U_Container_proxy@std@@@std@@@std@@QAEPAU_Container_proxy@2@I@Z ENDP ; std::_Wrap_alloc<std::allocator<std::_Container_proxy> >::allocate
_TEXT	ENDS
; Function compile flags: /Odtp /RTCsu /ZI
; File d:\appdata\vsp\vc\include\xmemory0
;	COMDAT ?allocate@?$allocator@U_Container_proxy@std@@@std@@QAEPAU_Container_proxy@2@I@Z
_TEXT	SEGMENT
_this$ = -8						; size = 4
__Count$ = 8						; size = 4
?allocate@?$allocator@U_Container_proxy@std@@@std@@QAEPAU_Container_proxy@2@I@Z PROC ; std::allocator<std::_Container_proxy>::allocate, COMDAT
; _this$ = ecx

; 642  : 		{	// allocate array of _Count elements

	push	ebp
	mov	ebp, esp
	sub	esp, 204				; 000000ccH
	push	ebx
	push	esi
	push	edi
	push	ecx
	lea	edi, DWORD PTR [ebp-204]
	mov	ecx, 51					; 00000033H
	mov	eax, -858993460				; ccccccccH
	rep stosd
	pop	ecx
	mov	DWORD PTR _this$[ebp], ecx

; 643  : 		return (static_cast<pointer>(_Allocate(_Count, sizeof (_Ty))));

	push	1
	push	8
	mov	eax, DWORD PTR __Count$[ebp]
	push	eax
	call	?_Allocate@std@@YAPAXII_N@Z		; std::_Allocate
	add	esp, 12					; 0000000cH

; 644  : 		}

	pop	edi
	pop	esi
	pop	ebx
	add	esp, 204				; 000000ccH
	cmp	ebp, esp
	call	__RTC_CheckEsp
	mov	esp, ebp
	pop	ebp
	ret	4
?allocate@?$allocator@U_Container_proxy@std@@@std@@QAEPAU_Container_proxy@2@I@Z ENDP ; std::allocator<std::_Container_proxy>::allocate
_TEXT	ENDS
; Function compile flags: /Odtp /RTCsu /ZI
; File d:\appdata\vsp\vc\include\xmemory0
;	COMDAT ?deallocate@?$allocator@U_Container_proxy@std@@@std@@QAEXPAU_Container_proxy@2@I@Z
_TEXT	SEGMENT
_this$ = -8						; size = 4
__Ptr$ = 8						; size = 4
__Count$ = 12						; size = 4
?deallocate@?$allocator@U_Container_proxy@std@@@std@@QAEXPAU_Container_proxy@2@I@Z PROC ; std::allocator<std::_Container_proxy>::deallocate, COMDAT
; _this$ = ecx

; 637  : 		{	// deallocate object at _Ptr

	push	ebp
	mov	ebp, esp
	sub	esp, 204				; 000000ccH
	push	ebx
	push	esi
	push	edi
	push	ecx
	lea	edi, DWORD PTR [ebp-204]
	mov	ecx, 51					; 00000033H
	mov	eax, -858993460				; ccccccccH
	rep stosd
	pop	ecx
	mov	DWORD PTR _this$[ebp], ecx

; 638  : 		_Deallocate(_Ptr, _Count, sizeof (_Ty));

	push	8
	mov	eax, DWORD PTR __Count$[ebp]
	push	eax
	mov	ecx, DWORD PTR __Ptr$[ebp]
	push	ecx
	call	?_Deallocate@std@@YAXPAXII@Z		; std::_Deallocate
	add	esp, 12					; 0000000cH

; 639  : 		}

	pop	edi
	pop	esi
	pop	ebx
	add	esp, 204				; 000000ccH
	cmp	ebp, esp
	call	__RTC_CheckEsp
	mov	esp, ebp
	pop	ebp
	ret	8
?deallocate@?$allocator@U_Container_proxy@std@@@std@@QAEXPAU_Container_proxy@2@I@Z ENDP ; std::allocator<std::_Container_proxy>::deallocate
_TEXT	ENDS
; Function compile flags: /Odtp /RTCsu /ZI
; File d:\appdata\vsp\vc\include\xmemory0
;	COMDAT ??$construct@PADAAPAD@?$_Wrap_alloc@V?$allocator@D@std@@@std@@QAEXPAPADAAPAD@Z
_TEXT	SEGMENT
_this$ = -8						; size = 4
__Ptr$ = 8						; size = 4
_<_Args_0>$ = 12					; size = 4
??$construct@PADAAPAD@?$_Wrap_alloc@V?$allocator@D@std@@@std@@QAEXPAPADAAPAD@Z PROC ; std::_Wrap_alloc<std::allocator<char> >::construct<char *,char * &>, COMDAT
; _this$ = ecx

; 916  : 		{	// construct _Ty(_Types...) at _Ptr

	push	ebp
	mov	ebp, esp
	sub	esp, 204				; 000000ccH
	push	ebx
	push	esi
	push	edi
	push	ecx
	lea	edi, DWORD PTR [ebp-204]
	mov	ecx, 51					; 00000033H
	mov	eax, -858993460				; ccccccccH
	rep stosd
	pop	ecx
	mov	DWORD PTR _this$[ebp], ecx

; 917  : 		_Mytraits::construct(*this, _Ptr,

	mov	eax, DWORD PTR _<_Args_0>$[ebp]
	push	eax
	call	??$forward@AAPAD@std@@YAAAPADAAPAD@Z	; std::forward<char * &>
	add	esp, 4
	push	eax
	mov	ecx, DWORD PTR __Ptr$[ebp]
	push	ecx
	mov	edx, DWORD PTR _this$[ebp]
	push	edx
	call	??$construct@PADAAPAD@?$allocator_traits@V?$allocator@D@std@@@std@@SAXAAV?$allocator@D@1@PAPADAAPAD@Z ; std::allocator_traits<std::allocator<char> >::construct<char *,char * &>
	add	esp, 12					; 0000000cH

; 918  : 			_STD forward<_Types>(_Args)...);
; 919  : 		}

	pop	edi
	pop	esi
	pop	ebx
	add	esp, 204				; 000000ccH
	cmp	ebp, esp
	call	__RTC_CheckEsp
	mov	esp, ebp
	pop	ebp
	ret	8
??$construct@PADAAPAD@?$_Wrap_alloc@V?$allocator@D@std@@@std@@QAEXPAPADAAPAD@Z ENDP ; std::_Wrap_alloc<std::allocator<char> >::construct<char *,char * &>
_TEXT	ENDS
; Function compile flags: /Odtp /RTCsu /ZI
; File d:\appdata\vsp\vc\include\xutility
;	COMDAT ??$_Debug_pointer_if@$$CBD@std@@YAX_NPBDPB_WI@Z
_TEXT	SEGMENT
__Test$ = 8						; size = 1
__Ptr$ = 12						; size = 4
__File$ = 16						; size = 4
__Line$ = 20						; size = 4
??$_Debug_pointer_if@$$CBD@std@@YAX_NPBDPB_WI@Z PROC	; std::_Debug_pointer_if<char const >, COMDAT

; 774  : 	{	// conditionally test pointer for non-singularity, pointers

	push	ebp
	mov	ebp, esp
	sub	esp, 192				; 000000c0H
	push	ebx
	push	esi
	push	edi
	lea	edi, DWORD PTR [ebp-192]
	mov	ecx, 48					; 00000030H
	mov	eax, -858993460				; ccccccccH
	rep stosd

; 775  : 	if (_Test && _Ptr == 0)

	movzx	eax, BYTE PTR __Test$[ebp]
	test	eax, eax
	je	SHORT $LN1@Debug_poin
	cmp	DWORD PTR __Ptr$[ebp], 0
	jne	SHORT $LN1@Debug_poin

; 776  : 		_DEBUG_ERROR2("invalid null pointer", _File, _Line);

	mov	esi, esp
	mov	eax, DWORD PTR __Line$[ebp]
	push	eax
	mov	ecx, DWORD PTR __File$[ebp]
	push	ecx
	push	OFFSET ??_C@_1CK@EOPGIILJ@?$AAi?$AAn?$AAv?$AAa?$AAl?$AAi?$AAd?$AA?5?$AAn?$AAu?$AAl?$AAl?$AA?5?$AAp?$AAo?$AAi?$AAn?$AAt?$AAe?$AAr?$AA?$AA@
	call	DWORD PTR __imp_?_Debug_message@std@@YAXPB_W0I@Z
	add	esp, 12					; 0000000cH
	cmp	esi, esp
	call	__RTC_CheckEsp
$LN1@Debug_poin:

; 777  : 	}

	pop	edi
	pop	esi
	pop	ebx
	add	esp, 192				; 000000c0H
	cmp	ebp, esp
	call	__RTC_CheckEsp
	mov	esp, ebp
	pop	ebp
	ret	0
??$_Debug_pointer_if@$$CBD@std@@YAX_NPBDPB_WI@Z ENDP	; std::_Debug_pointer_if<char const >
_TEXT	ENDS
; Function compile flags: /Odtp /RTCsu /ZI
; File d:\appdata\vsp\vc\include\xstddef
;	COMDAT ??$addressof@D@std@@YAPADAAD@Z
_TEXT	SEGMENT
$T1 = -209						; size = 1
__Val$ = 8						; size = 4
??$addressof@D@std@@YAPADAAD@Z PROC			; std::addressof<char>, COMDAT

; 696  : 	{	// return address of _Val

	push	ebp
	mov	ebp, esp
	sub	esp, 216				; 000000d8H
	push	ebx
	push	esi
	push	edi
	lea	edi, DWORD PTR [ebp-216]
	mov	ecx, 54					; 00000036H
	mov	eax, -858993460				; ccccccccH
	rep stosd

; 697  : 	return (_Addressof(_Val, is_function<_Ty>()));

	movzx	eax, BYTE PTR $T1[ebp]
	push	eax
	mov	ecx, DWORD PTR __Val$[ebp]
	push	ecx
	call	??$_Addressof@D@std@@YAPADAADU?$integral_constant@_N$0A@@0@@Z ; std::_Addressof<char>
	add	esp, 8

; 698  : 	}

	pop	edi
	pop	esi
	pop	ebx
	add	esp, 216				; 000000d8H
	cmp	ebp, esp
	call	__RTC_CheckEsp
	mov	esp, ebp
	pop	ebp
	ret	0
??$addressof@D@std@@YAPADAAD@Z ENDP			; std::addressof<char>
_TEXT	ENDS
; Function compile flags: /Odtp /RTCsu /ZI
; File d:\appdata\vsp\vc\include\xmemory0
;	COMDAT ??$destroy@PAD@?$_Wrap_alloc@V?$allocator@D@std@@@std@@QAEXPAPAD@Z
_TEXT	SEGMENT
_this$ = -8						; size = 4
__Ptr$ = 8						; size = 4
??$destroy@PAD@?$_Wrap_alloc@V?$allocator@D@std@@@std@@QAEXPAPAD@Z PROC ; std::_Wrap_alloc<std::allocator<char> >::destroy<char *>, COMDAT
; _this$ = ecx

; 924  : 		{	// destroy object at _Ptr

	push	ebp
	mov	ebp, esp
	sub	esp, 204				; 000000ccH
	push	ebx
	push	esi
	push	edi
	push	ecx
	lea	edi, DWORD PTR [ebp-204]
	mov	ecx, 51					; 00000033H
	mov	eax, -858993460				; ccccccccH
	rep stosd
	pop	ecx
	mov	DWORD PTR _this$[ebp], ecx

; 925  : 		_Mytraits::destroy(*this, _Ptr);

	mov	eax, DWORD PTR __Ptr$[ebp]
	push	eax
	mov	ecx, DWORD PTR _this$[ebp]
	push	ecx
	call	??$destroy@PAD@?$allocator_traits@V?$allocator@D@std@@@std@@SAXAAV?$allocator@D@1@PAPAD@Z ; std::allocator_traits<std::allocator<char> >::destroy<char *>
	add	esp, 8

; 926  : 		}

	pop	edi
	pop	esi
	pop	ebx
	add	esp, 204				; 000000ccH
	cmp	ebp, esp
	call	__RTC_CheckEsp
	mov	esp, ebp
	pop	ebp
	ret	4
??$destroy@PAD@?$_Wrap_alloc@V?$allocator@D@std@@@std@@QAEXPAPAD@Z ENDP ; std::_Wrap_alloc<std::allocator<char> >::destroy<char *>
_TEXT	ENDS
; Function compile flags: /Odtp /RTCsu /ZI
; File d:\appdata\vsp\vc\include\xutility
;	COMDAT ??$?0ABV?$allocator@D@std@@$$V@?$_Compressed_pair@U?$_Wrap_alloc@V?$allocator@D@std@@@std@@V?$_String_val@U?$_Simple_types@D@std@@@2@$00@std@@QAE@U_One_then_variadic_args_t@1@ABV?$allocator@D@1@@Z
_TEXT	SEGMENT
_this$ = -8						; size = 4
___formal$ = 8						; size = 1
__Val1$ = 12						; size = 4
??$?0ABV?$allocator@D@std@@$$V@?$_Compressed_pair@U?$_Wrap_alloc@V?$allocator@D@std@@@std@@V?$_String_val@U?$_Simple_types@D@std@@@2@$00@std@@QAE@U_One_then_variadic_args_t@1@ABV?$allocator@D@1@@Z PROC ; std::_Compressed_pair<std::_Wrap_alloc<std::allocator<char> >,std::_String_val<std::_Simple_types<char> >,1>::_Compressed_pair<std::_Wrap_alloc<std::allocator<char> >,std::_String_val<std::_Simple_types<char> >,1><std::allocator<char> const &>, COMDAT
; _this$ = ecx

; 288  : 		{	// construct from forwarded values

	push	ebp
	mov	ebp, esp
	sub	esp, 204				; 000000ccH
	push	ebx
	push	esi
	push	edi
	push	ecx
	lea	edi, DWORD PTR [ebp-204]
	mov	ecx, 51					; 00000033H
	mov	eax, -858993460				; ccccccccH
	rep stosd
	pop	ecx
	mov	DWORD PTR _this$[ebp], ecx

; 286  : 		: _Ty1(_STD forward<_Other1>(_Val1)),

	mov	eax, DWORD PTR __Val1$[ebp]
	push	eax
	call	??$forward@ABV?$allocator@D@std@@@std@@YAABV?$allocator@D@0@ABV10@@Z ; std::forward<std::allocator<char> const &>
	add	esp, 4
	push	eax
	mov	ecx, DWORD PTR _this$[ebp]
	call	??0?$_Wrap_alloc@V?$allocator@D@std@@@std@@QAE@ABV?$allocator@D@1@@Z ; std::_Wrap_alloc<std::allocator<char> >::_Wrap_alloc<std::allocator<char> >

; 287  : 			_Myval2(_STD forward<_Other2>(_Val2)...)

	mov	ecx, DWORD PTR _this$[ebp]
	call	??0?$_String_val@U?$_Simple_types@D@std@@@std@@QAE@XZ ; std::_String_val<std::_Simple_types<char> >::_String_val<std::_Simple_types<char> >

; 289  : 		}

	mov	eax, DWORD PTR _this$[ebp]
	pop	edi
	pop	esi
	pop	ebx
	add	esp, 204				; 000000ccH
	cmp	ebp, esp
	call	__RTC_CheckEsp
	mov	esp, ebp
	pop	ebp
	ret	8
??$?0ABV?$allocator@D@std@@$$V@?$_Compressed_pair@U?$_Wrap_alloc@V?$allocator@D@std@@@std@@V?$_String_val@U?$_Simple_types@D@std@@@2@$00@std@@QAE@U_One_then_variadic_args_t@1@ABV?$allocator@D@1@@Z ENDP ; std::_Compressed_pair<std::_Wrap_alloc<std::allocator<char> >,std::_String_val<std::_Simple_types<char> >,1>::_Compressed_pair<std::_Wrap_alloc<std::allocator<char> >,std::_String_val<std::_Simple_types<char> >,1><std::allocator<char> const &>
_TEXT	ENDS
; Function compile flags: /Odtp /RTCsu /ZI
; File d:\appdata\vsp\vc\include\xutility
;	COMDAT ??$?0V?$allocator@D@std@@$$V@?$_Compressed_pair@U?$_Wrap_alloc@V?$allocator@D@std@@@std@@V?$_String_val@U?$_Simple_types@D@std@@@2@$00@std@@QAE@U_One_then_variadic_args_t@1@$$QAV?$allocator@D@1@@Z
_TEXT	SEGMENT
_this$ = -8						; size = 4
___formal$ = 8						; size = 1
__Val1$ = 12						; size = 4
??$?0V?$allocator@D@std@@$$V@?$_Compressed_pair@U?$_Wrap_alloc@V?$allocator@D@std@@@std@@V?$_String_val@U?$_Simple_types@D@std@@@2@$00@std@@QAE@U_One_then_variadic_args_t@1@$$QAV?$allocator@D@1@@Z PROC ; std::_Compressed_pair<std::_Wrap_alloc<std::allocator<char> >,std::_String_val<std::_Simple_types<char> >,1>::_Compressed_pair<std::_Wrap_alloc<std::allocator<char> >,std::_String_val<std::_Simple_types<char> >,1><std::allocator<char> >, COMDAT
; _this$ = ecx

; 288  : 		{	// construct from forwarded values

	push	ebp
	mov	ebp, esp
	sub	esp, 204				; 000000ccH
	push	ebx
	push	esi
	push	edi
	push	ecx
	lea	edi, DWORD PTR [ebp-204]
	mov	ecx, 51					; 00000033H
	mov	eax, -858993460				; ccccccccH
	rep stosd
	pop	ecx
	mov	DWORD PTR _this$[ebp], ecx

; 286  : 		: _Ty1(_STD forward<_Other1>(_Val1)),

	mov	eax, DWORD PTR __Val1$[ebp]
	push	eax
	call	??$forward@V?$allocator@D@std@@@std@@YA$$QAV?$allocator@D@0@AAV10@@Z ; std::forward<std::allocator<char> >
	add	esp, 4
	push	eax
	mov	ecx, DWORD PTR _this$[ebp]
	call	??0?$_Wrap_alloc@V?$allocator@D@std@@@std@@QAE@ABV?$allocator@D@1@@Z ; std::_Wrap_alloc<std::allocator<char> >::_Wrap_alloc<std::allocator<char> >

; 287  : 			_Myval2(_STD forward<_Other2>(_Val2)...)

	mov	ecx, DWORD PTR _this$[ebp]
	call	??0?$_String_val@U?$_Simple_types@D@std@@@std@@QAE@XZ ; std::_String_val<std::_Simple_types<char> >::_String_val<std::_Simple_types<char> >

; 289  : 		}

	mov	eax, DWORD PTR _this$[ebp]
	pop	edi
	pop	esi
	pop	ebx
	add	esp, 204				; 000000ccH
	cmp	ebp, esp
	call	__RTC_CheckEsp
	mov	esp, ebp
	pop	ebp
	ret	8
??$?0V?$allocator@D@std@@$$V@?$_Compressed_pair@U?$_Wrap_alloc@V?$allocator@D@std@@@std@@V?$_String_val@U?$_Simple_types@D@std@@@2@$00@std@@QAE@U_One_then_variadic_args_t@1@$$QAV?$allocator@D@1@@Z ENDP ; std::_Compressed_pair<std::_Wrap_alloc<std::allocator<char> >,std::_String_val<std::_Simple_types<char> >,1>::_Compressed_pair<std::_Wrap_alloc<std::allocator<char> >,std::_String_val<std::_Simple_types<char> >,1><std::allocator<char> >
_TEXT	ENDS
; Function compile flags: /Odtp /RTCsu /ZI
; File d:\appdata\vsp\vc\include\type_traits
;	COMDAT ??$move@AAV?$allocator@D@std@@@std@@YA$$QAV?$allocator@D@0@AAV10@@Z
_TEXT	SEGMENT
__Arg$ = 8						; size = 4
??$move@AAV?$allocator@D@std@@@std@@YA$$QAV?$allocator@D@0@AAV10@@Z PROC ; std::move<std::allocator<char> &>, COMDAT

; 1249 : 	{	// forward _Arg as movable

	push	ebp
	mov	ebp, esp
	sub	esp, 192				; 000000c0H
	push	ebx
	push	esi
	push	edi
	lea	edi, DWORD PTR [ebp-192]
	mov	ecx, 48					; 00000030H
	mov	eax, -858993460				; ccccccccH
	rep stosd

; 1250 : 	return (static_cast<typename remove_reference<_Ty>::type&&>(_Arg));

	mov	eax, DWORD PTR __Arg$[ebp]

; 1251 : 	}

	pop	edi
	pop	esi
	pop	ebx
	mov	esp, ebp
	pop	ebp
	ret	0
??$move@AAV?$allocator@D@std@@@std@@YA$$QAV?$allocator@D@0@AAV10@@Z ENDP ; std::move<std::allocator<char> &>
_TEXT	ENDS
; Function compile flags: /Odtp /RTCsu /ZI
; File d:\appdata\vsp\vc\include\type_traits
;	COMDAT ??$forward@V?$basic_string@DU?$char_traits@D@std@@V?$allocator@D@2@@std@@@std@@YA$$QAV?$basic_string@DU?$char_traits@D@std@@V?$allocator@D@2@@0@AAV10@@Z
_TEXT	SEGMENT
__Arg$ = 8						; size = 4
??$forward@V?$basic_string@DU?$char_traits@D@std@@V?$allocator@D@2@@std@@@std@@YA$$QAV?$basic_string@DU?$char_traits@D@std@@V?$allocator@D@2@@0@AAV10@@Z PROC ; std::forward<std::basic_string<char,std::char_traits<char>,std::allocator<char> > >, COMDAT

; 1233 : 	{	// forward an lvalue as either an lvalue or an rvalue

	push	ebp
	mov	ebp, esp
	sub	esp, 192				; 000000c0H
	push	ebx
	push	esi
	push	edi
	lea	edi, DWORD PTR [ebp-192]
	mov	ecx, 48					; 00000030H
	mov	eax, -858993460				; ccccccccH
	rep stosd

; 1234 : 	return (static_cast<_Ty&&>(_Arg));

	mov	eax, DWORD PTR __Arg$[ebp]

; 1235 : 	}

	pop	edi
	pop	esi
	pop	ebx
	mov	esp, ebp
	pop	ebp
	ret	0
??$forward@V?$basic_string@DU?$char_traits@D@std@@V?$allocator@D@2@@std@@@std@@YA$$QAV?$basic_string@DU?$char_traits@D@std@@V?$allocator@D@2@@0@AAV10@@Z ENDP ; std::forward<std::basic_string<char,std::char_traits<char>,std::allocator<char> > >
_TEXT	ENDS
; Function compile flags: /Odtp /RTCsu /ZI
; File d:\appdata\vsp\vc\include\type_traits
;	COMDAT ??$move@AAU?$_Wrap_alloc@V?$allocator@D@std@@@std@@@std@@YA$$QAU?$_Wrap_alloc@V?$allocator@D@std@@@0@AAU10@@Z
_TEXT	SEGMENT
__Arg$ = 8						; size = 4
??$move@AAU?$_Wrap_alloc@V?$allocator@D@std@@@std@@@std@@YA$$QAU?$_Wrap_alloc@V?$allocator@D@std@@@0@AAU10@@Z PROC ; std::move<std::_Wrap_alloc<std::allocator<char> > &>, COMDAT

; 1249 : 	{	// forward _Arg as movable

	push	ebp
	mov	ebp, esp
	sub	esp, 192				; 000000c0H
	push	ebx
	push	esi
	push	edi
	lea	edi, DWORD PTR [ebp-192]
	mov	ecx, 48					; 00000030H
	mov	eax, -858993460				; ccccccccH
	rep stosd

; 1250 : 	return (static_cast<typename remove_reference<_Ty>::type&&>(_Arg));

	mov	eax, DWORD PTR __Arg$[ebp]

; 1251 : 	}

	pop	edi
	pop	esi
	pop	ebx
	mov	esp, ebp
	pop	ebp
	ret	0
??$move@AAU?$_Wrap_alloc@V?$allocator@D@std@@@std@@@std@@YA$$QAU?$_Wrap_alloc@V?$allocator@D@std@@@0@AAU10@@Z ENDP ; std::move<std::_Wrap_alloc<std::allocator<char> > &>
_TEXT	ENDS
; Function compile flags: /Odtp /RTCsu /ZI
; File d:\appdata\vsp\vc\include\xutility
;	COMDAT ??$_Debug_pointer@$$CBD@std@@YAXPBDPB_WI@Z
_TEXT	SEGMENT
__Ptr$ = 8						; size = 4
__File$ = 12						; size = 4
__Line$ = 16						; size = 4
??$_Debug_pointer@$$CBD@std@@YAXPBDPB_WI@Z PROC		; std::_Debug_pointer<char const >, COMDAT

; 760  : 	{	// test pointer for non-singularity, pointers

	push	ebp
	mov	ebp, esp
	sub	esp, 192				; 000000c0H
	push	ebx
	push	esi
	push	edi
	lea	edi, DWORD PTR [ebp-192]
	mov	ecx, 48					; 00000030H
	mov	eax, -858993460				; ccccccccH
	rep stosd

; 761  : 	if (_Ptr == 0)

	cmp	DWORD PTR __Ptr$[ebp], 0
	jne	SHORT $LN1@Debug_poin

; 762  : 		_DEBUG_ERROR2("invalid null pointer", _File, _Line);

	mov	esi, esp
	mov	eax, DWORD PTR __Line$[ebp]
	push	eax
	mov	ecx, DWORD PTR __File$[ebp]
	push	ecx
	push	OFFSET ??_C@_1CK@EOPGIILJ@?$AAi?$AAn?$AAv?$AAa?$AAl?$AAi?$AAd?$AA?5?$AAn?$AAu?$AAl?$AAl?$AA?5?$AAp?$AAo?$AAi?$AAn?$AAt?$AAe?$AAr?$AA?$AA@
	call	DWORD PTR __imp_?_Debug_message@std@@YAXPB_W0I@Z
	add	esp, 12					; 0000000cH
	cmp	esi, esp
	call	__RTC_CheckEsp
$LN1@Debug_poin:

; 763  : 	}

	pop	edi
	pop	esi
	pop	ebx
	add	esp, 192				; 000000c0H
	cmp	ebp, esp
	call	__RTC_CheckEsp
	mov	esp, ebp
	pop	ebp
	ret	0
??$_Debug_pointer@$$CBD@std@@YAXPBDPB_WI@Z ENDP		; std::_Debug_pointer<char const >
_TEXT	ENDS
; Function compile flags: /Odtp /RTCsu /ZI
; File d:\appdata\vsp\vc\include\ostream
;	COMDAT ??$endl@DU?$char_traits@D@std@@@std@@YAAAV?$basic_ostream@DU?$char_traits@D@std@@@0@AAV10@@Z
_TEXT	SEGMENT
__Ostr$ = 8						; size = 4
??$endl@DU?$char_traits@D@std@@@std@@YAAAV?$basic_ostream@DU?$char_traits@D@std@@@0@AAV10@@Z PROC ; std::endl<char,std::char_traits<char> >, COMDAT

; 993  : 	{	// insert newline and flush stream

	push	ebp
	mov	ebp, esp
	sub	esp, 192				; 000000c0H
	push	ebx
	push	esi
	push	edi
	lea	edi, DWORD PTR [ebp-192]
	mov	ecx, 48					; 00000030H
	mov	eax, -858993460				; ccccccccH
	rep stosd

; 994  : 	_Ostr.put(_Ostr.widen('\n'));

	mov	esi, esp
	push	10					; 0000000aH
	mov	eax, DWORD PTR __Ostr$[ebp]
	mov	ecx, DWORD PTR [eax]
	mov	edx, DWORD PTR __Ostr$[ebp]
	add	edx, DWORD PTR [ecx+4]
	mov	ecx, edx
	call	DWORD PTR __imp_?widen@?$basic_ios@DU?$char_traits@D@std@@@std@@QBEDD@Z
	cmp	esi, esp
	call	__RTC_CheckEsp
	mov	esi, esp
	movzx	eax, al
	push	eax
	mov	ecx, DWORD PTR __Ostr$[ebp]
	call	DWORD PTR __imp_?put@?$basic_ostream@DU?$char_traits@D@std@@@std@@QAEAAV12@D@Z
	cmp	esi, esp
	call	__RTC_CheckEsp

; 995  : 	_Ostr.flush();

	mov	esi, esp
	mov	ecx, DWORD PTR __Ostr$[ebp]
	call	DWORD PTR __imp_?flush@?$basic_ostream@DU?$char_traits@D@std@@@std@@QAEAAV12@XZ
	cmp	esi, esp
	call	__RTC_CheckEsp

; 996  : 	return (_Ostr);

	mov	eax, DWORD PTR __Ostr$[ebp]

; 997  : 	}

	pop	edi
	pop	esi
	pop	ebx
	add	esp, 192				; 000000c0H
	cmp	ebp, esp
	call	__RTC_CheckEsp
	mov	esp, ebp
	pop	ebp
	ret	0
??$endl@DU?$char_traits@D@std@@@std@@YAAAV?$basic_ostream@DU?$char_traits@D@std@@@0@AAV10@@Z ENDP ; std::endl<char,std::char_traits<char> >
_TEXT	ENDS
; Function compile flags: /Odtp /RTCsu /ZI
; File d:\appdata\vsp\vc\include\string
;	COMDAT ??$?6DU?$char_traits@D@std@@V?$allocator@D@1@@std@@YAAAV?$basic_ostream@DU?$char_traits@D@std@@@0@AAV10@ABV?$basic_string@DU?$char_traits@D@std@@V?$allocator@D@2@@0@@Z
_TEXT	SEGMENT
tv411 = -344						; size = 8
tv294 = -336						; size = 4
tv291 = -336						; size = 8
tv289 = -336						; size = 4
tv136 = -336						; size = 4
tv329 = -332						; size = 8
tv293 = -332						; size = 4
tv288 = -332						; size = 4
tv290 = -328						; size = 4
tv138 = -328						; size = 4
tv292 = -325						; size = 1
tv287 = -325						; size = 1
$T2 = -320						; size = 4
$T3 = -308						; size = 4
$T4 = -296						; size = 4
$T5 = -284						; size = 4
$T6 = -272						; size = 4
__Ok$ = -68						; size = 8
__Pad$ = -52						; size = 4
__Size$ = -40						; size = 4
__State$ = -28						; size = 4
__$ArrayPad$ = -20					; size = 4
__$EHRec$ = -16						; size = 16
__Ostr$ = 8						; size = 4
__Str$ = 12						; size = 4
??$?6DU?$char_traits@D@std@@V?$allocator@D@1@@std@@YAAAV?$basic_ostream@DU?$char_traits@D@std@@@0@AAV10@ABV?$basic_string@DU?$char_traits@D@std@@V?$allocator@D@2@@0@@Z PROC ; std::operator<<<char,std::char_traits<char>,std::allocator<char> >, COMDAT

; 170  : 	{	// insert a string

	push	ebp
	mov	ebp, esp
	push	-1
	push	__ehhandler$??$?6DU?$char_traits@D@std@@V?$allocator@D@1@@std@@YAAAV?$basic_ostream@DU?$char_traits@D@std@@@0@AAV10@ABV?$basic_string@DU?$char_traits@D@std@@V?$allocator@D@2@@0@@Z
	mov	eax, DWORD PTR fs:0
	push	eax
	push	ecx
	sub	esp, 328				; 00000148H
	push	ebx
	push	esi
	push	edi
	lea	edi, DWORD PTR [ebp-344]
	mov	ecx, 82					; 00000052H
	mov	eax, -858993460				; ccccccccH
	rep stosd
	mov	eax, DWORD PTR ___security_cookie
	xor	eax, ebp
	mov	DWORD PTR __$ArrayPad$[ebp], eax
	push	eax
	lea	eax, DWORD PTR __$EHRec$[ebp+4]
	mov	DWORD PTR fs:0, eax
	mov	DWORD PTR __$EHRec$[ebp], esp

; 171  : 	typedef basic_ostream<_Elem, _Traits> _Myos;
; 172  : 	typedef basic_string<_Elem, _Traits, _Alloc> _Mystr;
; 173  : 	typedef typename _Mystr::size_type _Mysizt;
; 174  : 
; 175  : 	ios_base::iostate _State = ios_base::goodbit;

	mov	DWORD PTR __State$[ebp], 0

; 176  : 	_Mysizt _Size = _Str.size();

	mov	ecx, DWORD PTR __Str$[ebp]
	call	?size@?$basic_string@DU?$char_traits@D@std@@V?$allocator@D@2@@std@@QBEIXZ ; std::basic_string<char,std::char_traits<char>,std::allocator<char> >::size
	mov	DWORD PTR __Size$[ebp], eax

; 177  : 	_Mysizt _Pad = _Ostr.width() <= 0 || (_Mysizt)_Ostr.width() <= _Size

	mov	eax, DWORD PTR __Ostr$[ebp]
	mov	ecx, DWORD PTR [eax]
	mov	edx, DWORD PTR __Ostr$[ebp]
	add	edx, DWORD PTR [ecx+4]
	mov	esi, esp
	mov	ecx, edx
	call	DWORD PTR __imp_?width@ios_base@std@@QBE_JXZ
	cmp	esi, esp
	call	__RTC_CheckEsp
	mov	DWORD PTR tv329[ebp], eax
	mov	DWORD PTR tv329[ebp+4], edx
	cmp	DWORD PTR tv329[ebp+4], 0
	jl	SHORT $LN17@operator
	jg	SHORT $LN24@operator
	cmp	DWORD PTR tv329[ebp], 0
	jbe	SHORT $LN17@operator
$LN24@operator:
	mov	eax, DWORD PTR __Ostr$[ebp]
	mov	ecx, DWORD PTR [eax]
	mov	edx, DWORD PTR __Ostr$[ebp]
	add	edx, DWORD PTR [ecx+4]
	mov	esi, esp
	mov	ecx, edx
	call	DWORD PTR __imp_?width@ios_base@std@@QBE_JXZ
	cmp	esi, esp
	call	__RTC_CheckEsp
	cmp	eax, DWORD PTR __Size$[ebp]
	jbe	SHORT $LN17@operator
	mov	eax, DWORD PTR __Ostr$[ebp]
	mov	ecx, DWORD PTR [eax]
	mov	edx, DWORD PTR __Ostr$[ebp]
	add	edx, DWORD PTR [ecx+4]
	mov	esi, esp
	mov	ecx, edx
	call	DWORD PTR __imp_?width@ios_base@std@@QBE_JXZ
	cmp	esi, esp
	call	__RTC_CheckEsp
	sub	eax, DWORD PTR __Size$[ebp]
	mov	DWORD PTR tv136[ebp], eax
	jmp	SHORT $LN18@operator
$LN17@operator:
	mov	DWORD PTR tv136[ebp], 0
$LN18@operator:
	mov	eax, DWORD PTR tv136[ebp]
	mov	DWORD PTR __Pad$[ebp], eax

; 178  : 		? 0 : (_Mysizt)_Ostr.width() - _Size;
; 179  : 	const typename _Myos::sentry _Ok(_Ostr);

	mov	eax, DWORD PTR __Ostr$[ebp]
	push	eax
	lea	ecx, DWORD PTR __Ok$[ebp]
	call	??0sentry@?$basic_ostream@DU?$char_traits@D@std@@@std@@QAE@AAV12@@Z ; std::basic_ostream<char,std::char_traits<char> >::sentry::sentry
	mov	DWORD PTR __$EHRec$[ebp+12], 0

; 180  : 
; 181  : 	if (!_Ok)

	lea	ecx, DWORD PTR __Ok$[ebp]
	call	??Bsentry@?$basic_ostream@DU?$char_traits@D@std@@@std@@QBE_NXZ ; std::basic_ostream<char,std::char_traits<char> >::sentry::operator bool
	movzx	eax, al
	test	eax, eax
	jne	SHORT $LN8@operator

; 182  : 		_State |= ios_base::badbit;

	mov	eax, DWORD PTR __State$[ebp]
	or	eax, 4
	mov	DWORD PTR __State$[ebp], eax

; 183  : 	else

	jmp	$LN9@operator
$LN8@operator:

; 184  : 		{	// state okay, insert characters
; 185  : 	_TRY_IO_BEGIN

	mov	BYTE PTR __$EHRec$[ebp+12], 1

; 186  : 		if ((_Ostr.flags() & ios_base::adjustfield) != ios_base::left)

	mov	eax, DWORD PTR __Ostr$[ebp]
	mov	ecx, DWORD PTR [eax]
	mov	edx, DWORD PTR __Ostr$[ebp]
	add	edx, DWORD PTR [ecx+4]
	mov	esi, esp
	mov	ecx, edx
	call	DWORD PTR __imp_?flags@ios_base@std@@QBEHXZ
	cmp	esi, esp
	call	__RTC_CheckEsp
	mov	DWORD PTR tv138[ebp], eax
	mov	eax, DWORD PTR tv138[ebp]
	and	eax, 448				; 000001c0H
	cmp	eax, 64					; 00000040H
	je	$LN11@operator

; 187  : 			for (; 0 < _Pad; --_Pad)	// pad on left

	jmp	SHORT $LN4@operator
$LN2@operator:
	mov	eax, DWORD PTR __Pad$[ebp]
	sub	eax, 1
	mov	DWORD PTR __Pad$[ebp], eax
$LN4@operator:
	cmp	DWORD PTR __Pad$[ebp], 0
	jbe	$LN11@operator

; 188  : 				if (_Traits::eq_int_type(_Traits::eof(),

	mov	eax, DWORD PTR __Ostr$[ebp]
	mov	ecx, DWORD PTR [eax]
	mov	edx, DWORD PTR __Ostr$[ebp]
	add	edx, DWORD PTR [ecx+4]
	mov	esi, esp
	mov	ecx, edx
	call	DWORD PTR __imp_?fill@?$basic_ios@DU?$char_traits@D@std@@@std@@QBEDXZ
	cmp	esi, esp
	call	__RTC_CheckEsp
	mov	BYTE PTR tv287[ebp], al
	mov	eax, DWORD PTR __Ostr$[ebp]
	mov	ecx, DWORD PTR [eax]
	mov	edx, DWORD PTR __Ostr$[ebp]
	add	edx, DWORD PTR [ecx+4]
	mov	esi, esp
	mov	ecx, edx
	call	DWORD PTR __imp_?rdbuf@?$basic_ios@DU?$char_traits@D@std@@@std@@QBEPAV?$basic_streambuf@DU?$char_traits@D@std@@@2@XZ
	cmp	esi, esp
	call	__RTC_CheckEsp
	mov	DWORD PTR tv288[ebp], eax
	mov	esi, esp
	movzx	eax, BYTE PTR tv287[ebp]
	push	eax
	mov	ecx, DWORD PTR tv288[ebp]
	call	DWORD PTR __imp_?sputc@?$basic_streambuf@DU?$char_traits@D@std@@@std@@QAEHD@Z
	cmp	esi, esp
	call	__RTC_CheckEsp
	mov	DWORD PTR tv289[ebp], eax
	mov	ecx, DWORD PTR tv289[ebp]
	mov	DWORD PTR $T6[ebp], ecx
	call	?eof@?$char_traits@D@std@@SAHXZ		; std::char_traits<char>::eof
	mov	DWORD PTR $T5[ebp], eax
	lea	edx, DWORD PTR $T6[ebp]
	push	edx
	lea	eax, DWORD PTR $T5[ebp]
	push	eax
	call	?eq_int_type@?$char_traits@D@std@@SA_NABH0@Z ; std::char_traits<char>::eq_int_type
	add	esp, 8
	movzx	ecx, al
	test	ecx, ecx
	je	SHORT $LN12@operator

; 189  : 					_Ostr.rdbuf()->sputc(_Ostr.fill())))
; 190  : 					{	// insertion failed, quit
; 191  : 					_State |= ios_base::badbit;

	mov	eax, DWORD PTR __State$[ebp]
	or	eax, 4
	mov	DWORD PTR __State$[ebp], eax

; 192  : 					break;

	jmp	SHORT $LN11@operator
$LN12@operator:

; 193  : 					}
; 194  : 
; 195  : 		if (_State == ios_base::goodbit

	jmp	$LN2@operator
$LN11@operator:

; 196  : 			&& _Ostr.rdbuf()->sputn(_Str.c_str(), (streamsize)_Size)

	cmp	DWORD PTR __State$[ebp], 0
	jne	$LN13@operator
	mov	eax, DWORD PTR __Ostr$[ebp]
	mov	ecx, DWORD PTR [eax]
	mov	edx, DWORD PTR __Ostr$[ebp]
	add	edx, DWORD PTR [ecx+4]
	mov	esi, esp
	mov	ecx, edx
	call	DWORD PTR __imp_?rdbuf@?$basic_ios@DU?$char_traits@D@std@@@std@@QBEPAV?$basic_streambuf@DU?$char_traits@D@std@@@2@XZ
	cmp	esi, esp
	call	__RTC_CheckEsp
	mov	DWORD PTR tv290[ebp], eax
	mov	eax, DWORD PTR __Size$[ebp]
	xor	ecx, ecx
	mov	esi, esp
	push	ecx
	push	eax
	mov	ecx, DWORD PTR __Str$[ebp]
	call	?c_str@?$basic_string@DU?$char_traits@D@std@@V?$allocator@D@2@@std@@QBEPBDXZ ; std::basic_string<char,std::char_traits<char>,std::allocator<char> >::c_str
	push	eax
	mov	ecx, DWORD PTR tv290[ebp]
	call	DWORD PTR __imp_?sputn@?$basic_streambuf@DU?$char_traits@D@std@@@std@@QAE_JPBD_J@Z
	cmp	esi, esp
	call	__RTC_CheckEsp
	mov	DWORD PTR tv291[ebp], eax
	mov	DWORD PTR tv291[ebp+4], edx
	mov	edx, DWORD PTR __Size$[ebp]
	xor	eax, eax
	mov	DWORD PTR tv411[ebp], edx
	mov	DWORD PTR tv411[ebp+4], eax
	mov	ecx, DWORD PTR tv291[ebp]
	cmp	ecx, DWORD PTR tv411[ebp]
	jne	SHORT $LN25@operator
	mov	edx, DWORD PTR tv291[ebp+4]
	cmp	edx, DWORD PTR tv411[ebp+4]
	je	SHORT $LN13@operator
$LN25@operator:

; 197  : 				!= (streamsize)_Size)
; 198  : 				_State |= ios_base::badbit;

	mov	eax, DWORD PTR __State$[ebp]
	or	eax, 4
	mov	DWORD PTR __State$[ebp], eax

; 199  : 		else

	jmp	$LN14@operator
$LN13@operator:

; 200  : 			for (; 0 < _Pad; --_Pad)	// pad on right

	jmp	SHORT $LN7@operator
$LN5@operator:
	mov	eax, DWORD PTR __Pad$[ebp]
	sub	eax, 1
	mov	DWORD PTR __Pad$[ebp], eax
$LN7@operator:
	cmp	DWORD PTR __Pad$[ebp], 0
	jbe	$LN14@operator

; 201  : 				if (_Traits::eq_int_type(_Traits::eof(),

	mov	eax, DWORD PTR __Ostr$[ebp]
	mov	ecx, DWORD PTR [eax]
	mov	edx, DWORD PTR __Ostr$[ebp]
	add	edx, DWORD PTR [ecx+4]
	mov	esi, esp
	mov	ecx, edx
	call	DWORD PTR __imp_?fill@?$basic_ios@DU?$char_traits@D@std@@@std@@QBEDXZ
	cmp	esi, esp
	call	__RTC_CheckEsp
	mov	BYTE PTR tv292[ebp], al
	mov	eax, DWORD PTR __Ostr$[ebp]
	mov	ecx, DWORD PTR [eax]
	mov	edx, DWORD PTR __Ostr$[ebp]
	add	edx, DWORD PTR [ecx+4]
	mov	esi, esp
	mov	ecx, edx
	call	DWORD PTR __imp_?rdbuf@?$basic_ios@DU?$char_traits@D@std@@@std@@QBEPAV?$basic_streambuf@DU?$char_traits@D@std@@@2@XZ
	cmp	esi, esp
	call	__RTC_CheckEsp
	mov	DWORD PTR tv293[ebp], eax
	mov	esi, esp
	movzx	eax, BYTE PTR tv292[ebp]
	push	eax
	mov	ecx, DWORD PTR tv293[ebp]
	call	DWORD PTR __imp_?sputc@?$basic_streambuf@DU?$char_traits@D@std@@@std@@QAEHD@Z
	cmp	esi, esp
	call	__RTC_CheckEsp
	mov	DWORD PTR tv294[ebp], eax
	mov	ecx, DWORD PTR tv294[ebp]
	mov	DWORD PTR $T4[ebp], ecx
	call	?eof@?$char_traits@D@std@@SAHXZ		; std::char_traits<char>::eof
	mov	DWORD PTR $T3[ebp], eax
	lea	edx, DWORD PTR $T4[ebp]
	push	edx
	lea	eax, DWORD PTR $T3[ebp]
	push	eax
	call	?eq_int_type@?$char_traits@D@std@@SA_NABH0@Z ; std::char_traits<char>::eq_int_type
	add	esp, 8
	movzx	ecx, al
	test	ecx, ecx
	je	SHORT $LN15@operator

; 202  : 					_Ostr.rdbuf()->sputc(_Ostr.fill())))
; 203  : 					{	// insertion failed, quit
; 204  : 					_State |= ios_base::badbit;

	mov	eax, DWORD PTR __State$[ebp]
	or	eax, 4
	mov	DWORD PTR __State$[ebp], eax

; 205  : 					break;

	jmp	SHORT $LN14@operator
$LN15@operator:

; 206  : 					}

	jmp	$LN5@operator
$LN14@operator:

; 207  : 		_Ostr.width(0);

	mov	esi, esp
	push	0
	push	0
	mov	eax, DWORD PTR __Ostr$[ebp]
	mov	ecx, DWORD PTR [eax]
	mov	edx, DWORD PTR __Ostr$[ebp]
	add	edx, DWORD PTR [ecx+4]
	mov	ecx, edx
	call	DWORD PTR __imp_?width@ios_base@std@@QAE_J_J@Z
	cmp	esi, esp
	call	__RTC_CheckEsp
	jmp	SHORT $LN19@operator
__catch$??$?6DU?$char_traits@D@std@@V?$allocator@D@1@@std@@YAAAV?$basic_ostream@DU?$char_traits@D@std@@@0@AAV10@ABV?$basic_string@DU?$char_traits@D@std@@V?$allocator@D@2@@0@@Z$0:

; 208  : 		_CATCH_IO_(_Ostr)

	mov	esi, esp
	push	1
	push	4
	mov	eax, DWORD PTR __Ostr$[ebp]
	mov	ecx, DWORD PTR [eax]
	mov	edx, DWORD PTR __Ostr$[ebp]
	add	edx, DWORD PTR [ecx+4]
	mov	ecx, edx
	call	DWORD PTR __imp_?setstate@?$basic_ios@DU?$char_traits@D@std@@@std@@QAEXH_N@Z
	cmp	esi, esp
	call	__RTC_CheckEsp
	mov	eax, $LN23@operator
	ret	0
$LN19@operator:
	mov	DWORD PTR __$EHRec$[ebp+12], 0
	jmp	SHORT $LN9@operator
$LN23@operator:
	mov	DWORD PTR __$EHRec$[ebp+12], 0
$LN9@operator:

; 209  : 		}
; 210  : 
; 211  : 	_Ostr.setstate(_State);

	mov	esi, esp
	push	0
	mov	eax, DWORD PTR __State$[ebp]
	push	eax
	mov	ecx, DWORD PTR __Ostr$[ebp]
	mov	edx, DWORD PTR [ecx]
	mov	ecx, DWORD PTR __Ostr$[ebp]
	add	ecx, DWORD PTR [edx+4]
	call	DWORD PTR __imp_?setstate@?$basic_ios@DU?$char_traits@D@std@@@std@@QAEXH_N@Z
	cmp	esi, esp
	call	__RTC_CheckEsp

; 212  : 	return (_Ostr);

	mov	eax, DWORD PTR __Ostr$[ebp]
	mov	DWORD PTR $T2[ebp], eax
	mov	DWORD PTR __$EHRec$[ebp+12], -1
	lea	ecx, DWORD PTR __Ok$[ebp]
	call	??1sentry@?$basic_ostream@DU?$char_traits@D@std@@@std@@QAE@XZ ; std::basic_ostream<char,std::char_traits<char> >::sentry::~sentry
	mov	eax, DWORD PTR $T2[ebp]

; 213  : 	}

	push	edx
	mov	ecx, ebp
	push	eax
	lea	edx, DWORD PTR $LN29@operator
	call	@_RTC_CheckStackVars@8
	pop	eax
	pop	edx
	mov	ecx, DWORD PTR __$EHRec$[ebp+4]
	mov	DWORD PTR fs:0, ecx
	pop	ecx
	pop	edi
	pop	esi
	pop	ebx
	mov	ecx, DWORD PTR __$ArrayPad$[ebp]
	xor	ecx, ebp
	call	@__security_check_cookie@4
	add	esp, 344				; 00000158H
	cmp	ebp, esp
	call	__RTC_CheckEsp
	mov	esp, ebp
	pop	ebp
	ret	0
	npad	1
$LN29@operator:
	DD	1
	DD	$LN28@operator
$LN28@operator:
	DD	-68					; ffffffbcH
	DD	8
	DD	$LN26@operator
$LN26@operator:
	DB	95					; 0000005fH
	DB	79					; 0000004fH
	DB	107					; 0000006bH
	DB	0
_TEXT	ENDS
;	COMDAT text$x
text$x	SEGMENT
__unwindfunclet$??$?6DU?$char_traits@D@std@@V?$allocator@D@1@@std@@YAAAV?$basic_ostream@DU?$char_traits@D@std@@@0@AAV10@ABV?$basic_string@DU?$char_traits@D@std@@V?$allocator@D@2@@0@@Z$2:
	lea	ecx, DWORD PTR __Ok$[ebp]
	jmp	??1sentry@?$basic_ostream@DU?$char_traits@D@std@@@std@@QAE@XZ ; std::basic_ostream<char,std::char_traits<char> >::sentry::~sentry
__ehhandler$??$?6DU?$char_traits@D@std@@V?$allocator@D@1@@std@@YAAAV?$basic_ostream@DU?$char_traits@D@std@@@0@AAV10@ABV?$basic_string@DU?$char_traits@D@std@@V?$allocator@D@2@@0@@Z:
	mov	edx, DWORD PTR [esp+8]
	lea	eax, DWORD PTR [edx+12]
	mov	ecx, DWORD PTR [edx-348]
	xor	ecx, eax
	call	@__security_check_cookie@4
	mov	ecx, DWORD PTR [edx-8]
	xor	ecx, eax
	call	@__security_check_cookie@4
	mov	eax, OFFSET __ehfuncinfo$??$?6DU?$char_traits@D@std@@V?$allocator@D@1@@std@@YAAAV?$basic_ostream@DU?$char_traits@D@std@@@0@AAV10@ABV?$basic_string@DU?$char_traits@D@std@@V?$allocator@D@2@@0@@Z
	jmp	___CxxFrameHandler3
text$x	ENDS
??$?6DU?$char_traits@D@std@@V?$allocator@D@1@@std@@YAAAV?$basic_ostream@DU?$char_traits@D@std@@@0@AAV10@ABV?$basic_string@DU?$char_traits@D@std@@V?$allocator@D@2@@0@@Z ENDP ; std::operator<<<char,std::char_traits<char>,std::allocator<char> >
; Function compile flags: /Odtp /RTCsu /ZI
; File d:\appdata\vsp\vc\include\xstring
;	COMDAT ??$?HDU?$char_traits@D@std@@V?$allocator@D@1@@std@@YA?AV?$basic_string@DU?$char_traits@D@std@@V?$allocator@D@2@@0@PBD$$QAV10@@Z
_TEXT	SEGMENT
$T1 = -200						; size = 4
___$ReturnUdt$ = 8					; size = 4
__Left$ = 12						; size = 4
__Right$ = 16						; size = 4
??$?HDU?$char_traits@D@std@@V?$allocator@D@1@@std@@YA?AV?$basic_string@DU?$char_traits@D@std@@V?$allocator@D@2@@0@PBD$$QAV10@@Z PROC ; std::operator+<char,std::char_traits<char>,std::allocator<char> >, COMDAT

; 2386 : 	{	// return NTCS + string

	push	ebp
	mov	ebp, esp
	sub	esp, 204				; 000000ccH
	push	ebx
	push	esi
	push	edi
	lea	edi, DWORD PTR [ebp-204]
	mov	ecx, 51					; 00000033H
	mov	eax, -858993460				; ccccccccH
	rep stosd
	mov	DWORD PTR $T1[ebp], 0

; 2387 : 	return (_STD move(_Right.insert(0, _Left)));

	mov	eax, DWORD PTR __Left$[ebp]
	push	eax
	push	0
	mov	ecx, DWORD PTR __Right$[ebp]
	call	?insert@?$basic_string@DU?$char_traits@D@std@@V?$allocator@D@2@@std@@QAEAAV12@IPBD@Z ; std::basic_string<char,std::char_traits<char>,std::allocator<char> >::insert
	push	eax
	call	??$move@AAV?$basic_string@DU?$char_traits@D@std@@V?$allocator@D@2@@std@@@std@@YA$$QAV?$basic_string@DU?$char_traits@D@std@@V?$allocator@D@2@@0@AAV10@@Z ; std::move<std::basic_string<char,std::char_traits<char>,std::allocator<char> > &>
	add	esp, 4
	push	eax
	mov	ecx, DWORD PTR ___$ReturnUdt$[ebp]
	call	??0?$basic_string@DU?$char_traits@D@std@@V?$allocator@D@2@@std@@QAE@$$QAV01@@Z ; std::basic_string<char,std::char_traits<char>,std::allocator<char> >::basic_string<char,std::char_traits<char>,std::allocator<char> >
	mov	ecx, DWORD PTR $T1[ebp]
	or	ecx, 1
	mov	DWORD PTR $T1[ebp], ecx
	mov	eax, DWORD PTR ___$ReturnUdt$[ebp]

; 2388 : 	}

	pop	edi
	pop	esi
	pop	ebx
	add	esp, 204				; 000000ccH
	cmp	ebp, esp
	call	__RTC_CheckEsp
	mov	esp, ebp
	pop	ebp
	ret	0
??$?HDU?$char_traits@D@std@@V?$allocator@D@1@@std@@YA?AV?$basic_string@DU?$char_traits@D@std@@V?$allocator@D@2@@0@PBD$$QAV10@@Z ENDP ; std::operator+<char,std::char_traits<char>,std::allocator<char> >
_TEXT	ENDS
; Function compile flags: /Odtp /RTCsu /ZI
; File d:\scottsdocs\sourcecode\twinsouls\code\maingame.cpp
;	COMDAT ?EventAction@MainGame@@AAEXXZ
_TEXT	SEGMENT
tv362 = -316						; size = 8
tv356 = -316						; size = 8
tv299 = -312						; size = 4
tv290 = -312						; size = 4
tv281 = -312						; size = 4
tv272 = -312						; size = 4
_xViewOffset$1 = -112					; size = 8
_yViewOffset$2 = -96					; size = 8
_lastMousePos$3 = -80					; size = 8
_mousePos$4 = -64					; size = 8
_scroll$5 = -48						; size = 4
_mouseEvents$ = -36					; size = 4
_windowEvents$6 = -24					; size = 4
_this$ = -12						; size = 4
__$ArrayPad$ = -4					; size = 4
?EventAction@MainGame@@AAEXXZ PROC			; MainGame::EventAction, COMDAT
; _this$ = ecx

; 100  : {

	push	ebp
	mov	ebp, esp
	sub	esp, 316				; 0000013cH
	push	ebx
	push	esi
	push	edi
	push	ecx
	lea	edi, DWORD PTR [ebp-316]
	mov	ecx, 79					; 0000004fH
	mov	eax, -858993460				; ccccccccH
	rep stosd
	pop	ecx
	mov	eax, DWORD PTR ___security_cookie
	xor	eax, ebp
	mov	DWORD PTR __$ArrayPad$[ebp], eax
	mov	DWORD PTR _this$[ebp], ecx

; 101  : 
; 102  :     if (cEO.eventListener->GetKey(KEY_W))

	push	1
	mov	eax, DWORD PTR _this$[ebp]
	mov	ecx, DWORD PTR [eax+8]
	call	?GetKey@EventListener@@QAE_NW4KeyCode@@@Z ; EventListener::GetKey
	movzx	ecx, al
	test	ecx, ecx
	je	SHORT $LN2@EventActio

; 103  :     {
; 104  :         cEO.graphicsController->graphicsObjects.camera->MoveCameraPosition(Camera::FORWARD,

	mov	eax, DWORD PTR _this$[ebp]
	mov	ecx, DWORD PTR [eax+12]
	call	?GetDeltaFrameTime@Clock@@QAENXZ	; Clock::GetDeltaFrameTime
	fstp	DWORD PTR tv272[ebp]
	fld	DWORD PTR tv272[ebp]
	push	ecx
	fstp	DWORD PTR [esp]
	push	0
	mov	ecx, DWORD PTR _this$[ebp]
	mov	edx, DWORD PTR [ecx]
	mov	ecx, DWORD PTR [edx+16]
	call	?MoveCameraPosition@Camera@@QAEXW4Camera_Movement@1@M@Z ; Camera::MoveCameraPosition
$LN2@EventActio:

; 105  :                 (GLfloat)cEO.masterClock->GetDeltaFrameTime());
; 106  :     }
; 107  :     if (cEO.eventListener->GetKey(KEY_A))

	push	2
	mov	eax, DWORD PTR _this$[ebp]
	mov	ecx, DWORD PTR [eax+8]
	call	?GetKey@EventListener@@QAE_NW4KeyCode@@@Z ; EventListener::GetKey
	movzx	ecx, al
	test	ecx, ecx
	je	SHORT $LN3@EventActio

; 108  :     {
; 109  :         cEO.graphicsController->graphicsObjects.camera->MoveCameraPosition(Camera::LEFT,

	mov	eax, DWORD PTR _this$[ebp]
	mov	ecx, DWORD PTR [eax+12]
	call	?GetDeltaFrameTime@Clock@@QAENXZ	; Clock::GetDeltaFrameTime
	fstp	DWORD PTR tv281[ebp]
	fld	DWORD PTR tv281[ebp]
	push	ecx
	fstp	DWORD PTR [esp]
	push	2
	mov	ecx, DWORD PTR _this$[ebp]
	mov	edx, DWORD PTR [ecx]
	mov	ecx, DWORD PTR [edx+16]
	call	?MoveCameraPosition@Camera@@QAEXW4Camera_Movement@1@M@Z ; Camera::MoveCameraPosition
$LN3@EventActio:

; 110  :                 (GLfloat)cEO.masterClock->GetDeltaFrameTime());
; 111  :     }
; 112  :     if (cEO.eventListener->GetKey(KEY_S))

	push	3
	mov	eax, DWORD PTR _this$[ebp]
	mov	ecx, DWORD PTR [eax+8]
	call	?GetKey@EventListener@@QAE_NW4KeyCode@@@Z ; EventListener::GetKey
	movzx	ecx, al
	test	ecx, ecx
	je	SHORT $LN4@EventActio

; 113  :     {
; 114  :         cEO.graphicsController->graphicsObjects.camera->MoveCameraPosition(Camera::BACKWARD,

	mov	eax, DWORD PTR _this$[ebp]
	mov	ecx, DWORD PTR [eax+12]
	call	?GetDeltaFrameTime@Clock@@QAENXZ	; Clock::GetDeltaFrameTime
	fstp	DWORD PTR tv290[ebp]
	fld	DWORD PTR tv290[ebp]
	push	ecx
	fstp	DWORD PTR [esp]
	push	1
	mov	ecx, DWORD PTR _this$[ebp]
	mov	edx, DWORD PTR [ecx]
	mov	ecx, DWORD PTR [edx+16]
	call	?MoveCameraPosition@Camera@@QAEXW4Camera_Movement@1@M@Z ; Camera::MoveCameraPosition
$LN4@EventActio:

; 115  :                 (GLfloat)cEO.masterClock->GetDeltaFrameTime());
; 116  :     }
; 117  :     if (cEO.eventListener->GetKey(KEY_D))

	push	4
	mov	eax, DWORD PTR _this$[ebp]
	mov	ecx, DWORD PTR [eax+8]
	call	?GetKey@EventListener@@QAE_NW4KeyCode@@@Z ; EventListener::GetKey
	movzx	ecx, al
	test	ecx, ecx
	je	SHORT $LN5@EventActio

; 118  :     {
; 119  :         cEO.graphicsController->graphicsObjects.camera->MoveCameraPosition(Camera::RIGHT,

	mov	eax, DWORD PTR _this$[ebp]
	mov	ecx, DWORD PTR [eax+12]
	call	?GetDeltaFrameTime@Clock@@QAENXZ	; Clock::GetDeltaFrameTime
	fstp	DWORD PTR tv299[ebp]
	fld	DWORD PTR tv299[ebp]
	push	ecx
	fstp	DWORD PTR [esp]
	push	3
	mov	ecx, DWORD PTR _this$[ebp]
	mov	edx, DWORD PTR [ecx]
	mov	ecx, DWORD PTR [edx+16]
	call	?MoveCameraPosition@Camera@@QAEXW4Camera_Movement@1@M@Z ; Camera::MoveCameraPosition
$LN5@EventActio:

; 120  :                 (GLfloat)cEO.masterClock->GetDeltaFrameTime());
; 121  :     }
; 122  : 
; 123  :     if (cEO.eventListener->GetViewportNeedsUpdating())

	mov	eax, DWORD PTR _this$[ebp]
	mov	ecx, DWORD PTR [eax+8]
	call	?GetViewportNeedsUpdating@EventListener@@QAE_NXZ ; EventListener::GetViewportNeedsUpdating
	movzx	ecx, al
	test	ecx, ecx
	je	SHORT $LN6@EventActio

; 124  :     {
; 125  :         WindowEvents* windowEvents = cEO.eventListener->GetWindowEvents();

	mov	eax, DWORD PTR _this$[ebp]
	mov	ecx, DWORD PTR [eax+8]
	call	?GetWindowEvents@EventListener@@QAEPAUWindowEvents@@XZ ; EventListener::GetWindowEvents
	mov	DWORD PTR _windowEvents$6[ebp], eax

; 126  :         cEO.platform->UpdateWindowInfo(*windowEvents);

	mov	eax, DWORD PTR _windowEvents$6[ebp]
	sub	esp, 20					; 00000014H
	mov	ecx, esp
	mov	edx, DWORD PTR [eax]
	mov	DWORD PTR [ecx], edx
	mov	edx, DWORD PTR [eax+4]
	mov	DWORD PTR [ecx+4], edx
	mov	edx, DWORD PTR [eax+8]
	mov	DWORD PTR [ecx+8], edx
	mov	edx, DWORD PTR [eax+12]
	mov	DWORD PTR [ecx+12], edx
	mov	eax, DWORD PTR [eax+16]
	mov	DWORD PTR [ecx+16], eax
	mov	ecx, DWORD PTR _this$[ebp]
	mov	ecx, DWORD PTR [ecx+4]
	call	?UpdateWindowInfo@Platform@@QAEXUWindowEvents@@@Z ; Platform::UpdateWindowInfo

; 127  :         cEO.graphicsController->UpdateViewport(windowEvents->newClientWidth, windowEvents->newClientHeight);

	mov	eax, DWORD PTR _windowEvents$6[ebp]
	mov	ecx, DWORD PTR [eax+16]
	push	ecx
	mov	edx, DWORD PTR _windowEvents$6[ebp]
	mov	eax, DWORD PTR [edx+12]
	push	eax
	mov	ecx, DWORD PTR _this$[ebp]
	mov	ecx, DWORD PTR [ecx]
	call	?UpdateViewport@GraphicsController@@QAEXII@Z ; GraphicsController::UpdateViewport
$LN6@EventActio:

; 128  :     }
; 129  : 
; 130  :     MouseEvents* mouseEvents = cEO.eventListener->GetMouseEvents();

	mov	eax, DWORD PTR _this$[ebp]
	mov	ecx, DWORD PTR [eax+8]
	call	?GetMouseEvents@EventListener@@QAEPAUMouseEvents@@XZ ; EventListener::GetMouseEvents
	mov	DWORD PTR _mouseEvents$[ebp], eax

; 131  :     if (cEO.eventListener->GetIsMouseInWindow())

	mov	eax, DWORD PTR _this$[ebp]
	mov	ecx, DWORD PTR [eax+8]
	call	?GetIsMouseInWindow@EventListener@@QAE_NXZ ; EventListener::GetIsMouseInWindow
	movzx	ecx, al
	test	ecx, ecx
	je	$LN9@EventActio

; 132  :     {
; 133  : 
; 134  :         if (mouseEvents->scrollMoved)

	mov	eax, DWORD PTR _mouseEvents$[ebp]
	movzx	ecx, BYTE PTR [eax+25]
	test	ecx, ecx
	je	SHORT $LN8@EventActio

; 135  :         {
; 136  :             //zoom calculation
; 137  :             GLfloat scroll = (GLfloat)cEO.eventListener->GetMouseScroll();

	mov	eax, DWORD PTR _this$[ebp]
	mov	ecx, DWORD PTR [eax+8]
	call	?GetMouseScroll@EventListener@@QAEHXZ	; EventListener::GetMouseScroll
	cvtsi2ss xmm0, eax
	movss	DWORD PTR _scroll$5[ebp], xmm0

; 138  :             cEO.graphicsController->graphicsObjects.camera->ChangeZoom(scroll);

	push	ecx
	movss	xmm0, DWORD PTR _scroll$5[ebp]
	movss	DWORD PTR [esp], xmm0
	mov	eax, DWORD PTR _this$[ebp]
	mov	ecx, DWORD PTR [eax]
	mov	ecx, DWORD PTR [ecx+16]
	call	?ChangeZoom@Camera@@QAEXM@Z		; Camera::ChangeZoom

; 139  :             mouseEvents->scrollMoved = false;

	mov	eax, DWORD PTR _mouseEvents$[ebp]
	mov	BYTE PTR [eax+25], 0
$LN8@EventActio:

; 140  :         }
; 141  : 
; 142  :         if (mouseEvents->mouseLeft)

	mov	eax, DWORD PTR _mouseEvents$[ebp]
	movzx	ecx, BYTE PTR [eax+17]
	test	ecx, ecx
	je	$LN9@EventActio

; 143  :         {
; 144  :             //view angle calculation
; 145  :             glm::vec2 mousePos = cEO.eventListener->GetMousePos();

	lea	eax, DWORD PTR _mousePos$4[ebp]
	push	eax
	mov	ecx, DWORD PTR _this$[ebp]
	mov	ecx, DWORD PTR [ecx+8]
	call	?GetMousePos@EventListener@@QAE?AU?$tvec2@M$0A@@glm@@XZ ; EventListener::GetMousePos

; 146  :             glm::vec2 lastMousePos = cEO.eventListener->GetLastMousePos();

	lea	eax, DWORD PTR _lastMousePos$3[ebp]
	push	eax
	mov	ecx, DWORD PTR _this$[ebp]
	mov	ecx, DWORD PTR [ecx+8]
	call	?GetLastMousePos@EventListener@@QAE?AU?$tvec2@M$0A@@glm@@XZ ; EventListener::GetLastMousePos

; 147  : 
; 148  :             if (cEO.eventListener->GetMouseEnteredWindow())

	mov	eax, DWORD PTR _this$[ebp]
	mov	ecx, DWORD PTR [eax+8]
	call	?GetMouseEnteredWindow@EventListener@@QAE_NXZ ; EventListener::GetMouseEnteredWindow
	movzx	ecx, al
	test	ecx, ecx
	je	SHORT $LN10@EventActio

; 149  :             {
; 150  :                 lastMousePos = mousePos;

	mov	eax, DWORD PTR _mousePos$4[ebp]
	mov	DWORD PTR _lastMousePos$3[ebp], eax
	mov	ecx, DWORD PTR _mousePos$4[ebp+4]
	mov	DWORD PTR _lastMousePos$3[ebp+4], ecx
$LN10@EventActio:

; 151  :             }
; 152  : 
; 153  :             double yViewOffset = (lastMousePos.y - mousePos.y);

	movss	xmm0, DWORD PTR _lastMousePos$3[ebp+4]
	subss	xmm0, DWORD PTR _mousePos$4[ebp+4]
	cvtss2sd xmm0, xmm0
	movsd	QWORD PTR _yViewOffset$2[ebp], xmm0

; 154  :             double xViewOffset = (mousePos.x - lastMousePos.x);

	movss	xmm0, DWORD PTR _mousePos$4[ebp]
	subss	xmm0, DWORD PTR _lastMousePos$3[ebp]
	cvtss2sd xmm0, xmm0
	movsd	QWORD PTR _xViewOffset$1[ebp], xmm0

; 155  : 
; 156  :             //Debug::Message(std::to_string(xViewOffset));
; 157  : 
; 158  :             yViewOffset *= cEO.masterClock->GetDeltaFrameTime();

	mov	eax, DWORD PTR _this$[ebp]
	mov	ecx, DWORD PTR [eax+12]
	call	?GetDeltaFrameTime@Clock@@QAENXZ	; Clock::GetDeltaFrameTime
	fstp	QWORD PTR tv356[ebp]
	movsd	xmm0, QWORD PTR tv356[ebp]
	mulsd	xmm0, QWORD PTR _yViewOffset$2[ebp]
	movsd	QWORD PTR _yViewOffset$2[ebp], xmm0

; 159  :             xViewOffset *= cEO.masterClock->GetDeltaFrameTime();

	mov	eax, DWORD PTR _this$[ebp]
	mov	ecx, DWORD PTR [eax+12]
	call	?GetDeltaFrameTime@Clock@@QAENXZ	; Clock::GetDeltaFrameTime
	fstp	QWORD PTR tv362[ebp]
	movsd	xmm0, QWORD PTR tv362[ebp]
	mulsd	xmm0, QWORD PTR _xViewOffset$1[ebp]
	movsd	QWORD PTR _xViewOffset$1[ebp], xmm0

; 160  : 
; 161  :             cEO.graphicsController->graphicsObjects.camera->ChangeViewAngle((GLfloat)xViewOffset, (GLfloat)yViewOffset);

	push	1
	cvtsd2ss xmm0, QWORD PTR _yViewOffset$2[ebp]
	push	ecx
	movss	DWORD PTR [esp], xmm0
	cvtsd2ss xmm0, QWORD PTR _xViewOffset$1[ebp]
	push	ecx
	movss	DWORD PTR [esp], xmm0
	mov	eax, DWORD PTR _this$[ebp]
	mov	ecx, DWORD PTR [eax]
	mov	ecx, DWORD PTR [ecx+16]
	call	?ChangeViewAngle@Camera@@QAEXMME@Z	; Camera::ChangeViewAngle
$LN9@EventActio:

; 162  :         }
; 163  : 
; 164  : 
; 165  :     }
; 166  : 
; 167  : 
; 168  : }

	push	edx
	mov	ecx, ebp
	push	eax
	lea	edx, DWORD PTR $LN15@EventActio
	call	@_RTC_CheckStackVars@8
	pop	eax
	pop	edx
	pop	edi
	pop	esi
	pop	ebx
	mov	ecx, DWORD PTR __$ArrayPad$[ebp]
	xor	ecx, ebp
	call	@__security_check_cookie@4
	add	esp, 316				; 0000013cH
	cmp	ebp, esp
	call	__RTC_CheckEsp
	mov	esp, ebp
	pop	ebp
	ret	0
	npad	3
$LN15@EventActio:
	DD	2
	DD	$LN14@EventActio
$LN14@EventActio:
	DD	-64					; ffffffc0H
	DD	8
	DD	$LN12@EventActio
	DD	-80					; ffffffb0H
	DD	8
	DD	$LN13@EventActio
$LN13@EventActio:
	DB	108					; 0000006cH
	DB	97					; 00000061H
	DB	115					; 00000073H
	DB	116					; 00000074H
	DB	77					; 0000004dH
	DB	111					; 0000006fH
	DB	117					; 00000075H
	DB	115					; 00000073H
	DB	101					; 00000065H
	DB	80					; 00000050H
	DB	111					; 0000006fH
	DB	115					; 00000073H
	DB	0
$LN12@EventActio:
	DB	109					; 0000006dH
	DB	111					; 0000006fH
	DB	117					; 00000075H
	DB	115					; 00000073H
	DB	101					; 00000065H
	DB	80					; 00000050H
	DB	111					; 0000006fH
	DB	115					; 00000073H
	DB	0
?EventAction@MainGame@@AAEXXZ ENDP			; MainGame::EventAction
_TEXT	ENDS
; Function compile flags: /Odtp /RTCsu /ZI
; File d:\scottsdocs\sourcecode\twinsouls\code\maingame.cpp
;	COMDAT ?Run@MainGame@@QAEXXZ
_TEXT	SEGMENT
tv150 = -220						; size = 4
$T1 = -212						; size = 4
_this$ = -8						; size = 4
?Run@MainGame@@QAEXXZ PROC				; MainGame::Run, COMDAT
; _this$ = ecx

; 66   : {

	push	ebp
	mov	ebp, esp
	sub	esp, 220				; 000000dcH
	push	ebx
	push	esi
	push	edi
	push	ecx
	lea	edi, DWORD PTR [ebp-220]
	mov	ecx, 55					; 00000037H
	mov	eax, -858993460				; ccccccccH
	rep stosd
	pop	ecx
	mov	DWORD PTR _this$[ebp], ecx
$LN2@Run:

; 67   :     //main game loop
; 68   :     while (!cEO.eventListener->GetCloseGame())

	mov	eax, DWORD PTR _this$[ebp]
	mov	ecx, DWORD PTR [eax+8]
	call	?GetCloseGame@EventListener@@QAE_NXZ	; EventListener::GetCloseGame
	movzx	ecx, al
	test	ecx, ecx
	jne	$LN3@Run

; 69   :     {
; 70   :         cEO.masterClock->Tick();

	mov	eax, DWORD PTR _this$[ebp]
	mov	ecx, DWORD PTR [eax+12]
	call	?Tick@Clock@@QAEXXZ			; Clock::Tick

; 71   :         cEO.masterClock->UpdateFrameTimes();

	mov	eax, DWORD PTR _this$[ebp]
	mov	ecx, DWORD PTR [eax+12]
	call	?UpdateFrameTimes@Clock@@QAEXXZ		; Clock::UpdateFrameTimes

; 72   :         cEO.platform->PollEvents(cEO.eventListener);

	mov	eax, DWORD PTR _this$[ebp]
	mov	ecx, DWORD PTR [eax+8]
	push	ecx
	mov	edx, DWORD PTR _this$[ebp]
	mov	ecx, DWORD PTR [edx+4]
	call	?PollEvents@Platform@@QAEXPAVEventListener@@@Z ; Platform::PollEvents

; 73   :         //react to events of last frame
; 74   :         EventAction();

	mov	ecx, DWORD PTR _this$[ebp]
	call	?EventAction@MainGame@@AAEXXZ		; MainGame::EventAction

; 75   :         //render
; 76   :         cEO.graphicsController->Render(cEO.masterClock->GetTimeSinceStart(),

	mov	eax, DWORD PTR _this$[ebp]
	add	eax, 20					; 00000014H
	push	eax
	mov	ecx, DWORD PTR _this$[ebp]
	mov	ecx, DWORD PTR [ecx+12]
	call	?GetTimeSinceStart@Clock@@QAENXZ	; Clock::GetTimeSinceStart
	sub	esp, 8
	fstp	QWORD PTR [esp]
	mov	edx, DWORD PTR _this$[ebp]
	mov	ecx, DWORD PTR [edx]
	call	?Render@GraphicsController@@QAEXNPAUBox@@@Z ; GraphicsController::Render

; 77   :                                        boxes);
; 78   : 
; 79   : 
; 80   :         //swap buffers
; 81   :         cEO.platform->SwapBuffers();

	mov	eax, DWORD PTR _this$[ebp]
	mov	ecx, DWORD PTR [eax+4]
	call	?SwapBuffers@Platform@@QAEXXZ		; Platform::SwapBuffers

; 82   : 
; 83   : 
; 84   :         //store events from message que to event struct
; 85   :         cEO.eventListener->SwapEvents();

	mov	eax, DWORD PTR _this$[ebp]
	mov	ecx, DWORD PTR [eax+8]
	call	?SwapEvents@EventListener@@QAEXXZ	; EventListener::SwapEvents

; 86   :         Debug::Message(std::to_string(cEO.masterClock->Tock()));

	mov	eax, DWORD PTR _this$[ebp]
	mov	ecx, DWORD PTR [eax+12]
	call	?Tock@Clock@@QAENXZ			; Clock::Tock
	sub	esp, 28					; 0000001cH
	mov	ecx, esp
	mov	DWORD PTR $T1[ebp], esp
	sub	esp, 8
	fstp	QWORD PTR [esp]
	push	ecx
	call	?to_string@std@@YA?AV?$basic_string@DU?$char_traits@D@std@@V?$allocator@D@2@@1@N@Z ; std::to_string
	add	esp, 12					; 0000000cH
	mov	DWORD PTR tv150[ebp], eax
	call	?Message@Debug@@SAXV?$basic_string@DU?$char_traits@D@std@@V?$allocator@D@2@@std@@@Z ; Debug::Message
	add	esp, 28					; 0000001cH

; 87   :     }

	jmp	$LN2@Run
$LN3@Run:

; 88   : 
; 89   : }

	pop	edi
	pop	esi
	pop	ebx
	add	esp, 220				; 000000dcH
	cmp	ebp, esp
	call	__RTC_CheckEsp
	mov	esp, ebp
	pop	ebp
	ret	0
?Run@MainGame@@QAEXXZ ENDP				; MainGame::Run
_TEXT	ENDS
; Function compile flags: /Odtp /RTCsu /ZI
; File d:\scottsdocs\sourcecode\twinsouls\code\maingame.cpp
;	COMDAT ??1MainGame@@QAE@XZ
_TEXT	SEGMENT
tv91 = -304						; size = 4
tv84 = -304						; size = 4
tv77 = -304						; size = 4
tv70 = -304						; size = 4
$T1 = -296						; size = 4
$T2 = -284						; size = 4
$T3 = -272						; size = 4
$T4 = -260						; size = 4
$T5 = -248						; size = 4
$T6 = -236						; size = 4
$T7 = -224						; size = 4
$T8 = -212						; size = 4
_this$ = -8						; size = 4
??1MainGame@@QAE@XZ PROC				; MainGame::~MainGame, COMDAT
; _this$ = ecx

; 92   : {

	push	ebp
	mov	ebp, esp
	sub	esp, 304				; 00000130H
	push	ebx
	push	esi
	push	edi
	push	ecx
	lea	edi, DWORD PTR [ebp-304]
	mov	ecx, 76					; 0000004cH
	mov	eax, -858993460				; ccccccccH
	rep stosd
	pop	ecx
	mov	DWORD PTR _this$[ebp], ecx

; 93   :     delete(cEO.masterClock);

	mov	eax, DWORD PTR _this$[ebp]
	mov	ecx, DWORD PTR [eax+12]
	mov	DWORD PTR $T7[ebp], ecx
	mov	edx, DWORD PTR $T7[ebp]
	mov	DWORD PTR $T8[ebp], edx
	cmp	DWORD PTR $T8[ebp], 0
	je	SHORT $LN3@MainGame
	push	1
	mov	ecx, DWORD PTR $T8[ebp]
	call	??_GClock@@QAEPAXI@Z
	mov	DWORD PTR tv70[ebp], eax
	jmp	SHORT $LN4@MainGame
$LN3@MainGame:
	mov	DWORD PTR tv70[ebp], 0
$LN4@MainGame:

; 94   :     delete(cEO.graphicsController);

	mov	eax, DWORD PTR _this$[ebp]
	mov	ecx, DWORD PTR [eax]
	mov	DWORD PTR $T5[ebp], ecx
	mov	edx, DWORD PTR $T5[ebp]
	mov	DWORD PTR $T6[ebp], edx
	cmp	DWORD PTR $T6[ebp], 0
	je	SHORT $LN5@MainGame
	push	1
	mov	ecx, DWORD PTR $T6[ebp]
	call	??_GGraphicsController@@QAEPAXI@Z
	mov	DWORD PTR tv77[ebp], eax
	jmp	SHORT $LN6@MainGame
$LN5@MainGame:
	mov	DWORD PTR tv77[ebp], 0
$LN6@MainGame:

; 95   :     delete(cEO.platform);

	mov	eax, DWORD PTR _this$[ebp]
	mov	ecx, DWORD PTR [eax+4]
	mov	DWORD PTR $T3[ebp], ecx
	mov	edx, DWORD PTR $T3[ebp]
	mov	DWORD PTR $T4[ebp], edx
	cmp	DWORD PTR $T4[ebp], 0
	je	SHORT $LN7@MainGame
	push	1
	mov	ecx, DWORD PTR $T4[ebp]
	call	??_GPlatform@@QAEPAXI@Z
	mov	DWORD PTR tv84[ebp], eax
	jmp	SHORT $LN8@MainGame
$LN7@MainGame:
	mov	DWORD PTR tv84[ebp], 0
$LN8@MainGame:

; 96   :     delete(cEO.eventListener);

	mov	eax, DWORD PTR _this$[ebp]
	mov	ecx, DWORD PTR [eax+8]
	mov	DWORD PTR $T1[ebp], ecx
	mov	edx, DWORD PTR $T1[ebp]
	mov	DWORD PTR $T2[ebp], edx
	cmp	DWORD PTR $T2[ebp], 0
	je	SHORT $LN9@MainGame
	push	1
	mov	ecx, DWORD PTR $T2[ebp]
	call	??_GEventListener@@QAEPAXI@Z
	mov	DWORD PTR tv91[ebp], eax
	jmp	SHORT $LN2@MainGame
$LN9@MainGame:
	mov	DWORD PTR tv91[ebp], 0
$LN2@MainGame:

; 97   : }

	pop	edi
	pop	esi
	pop	ebx
	add	esp, 304				; 00000130H
	cmp	ebp, esp
	call	__RTC_CheckEsp
	mov	esp, ebp
	pop	ebp
	ret	0
??1MainGame@@QAE@XZ ENDP				; MainGame::~MainGame
_TEXT	ENDS
; Function compile flags: /Odtp /RTCsu /ZI
; File d:\scottsdocs\sourcecode\twinsouls\code\maingame.cpp
;	COMDAT ??0MainGame@@QAE@XZ
_TEXT	SEGMENT
tv335 = -668						; size = 4
tv329 = -668						; size = 4
tv355 = -664						; size = 4
tv351 = -664						; size = 4
tv341 = -660						; size = 4
tv338 = -660						; size = 4
tv333 = -660						; size = 4
tv327 = -660						; size = 4
tv354 = -656						; size = 4
tv350 = -656						; size = 4
tv340 = -656						; size = 4
tv337 = -656						; size = 4
tv211 = -656						; size = 4
tv170 = -656						; size = 4
tv146 = -656						; size = 4
tv95 = -656						; size = 4
tv82 = -656						; size = 4
$T2 = -648						; size = 4
$T3 = -636						; size = 4
$T4 = -624						; size = 4
$T5 = -612						; size = 12
$T6 = -592						; size = 20
$T7 = -564						; size = 4
$T8 = -552						; size = 20
$T9 = -524						; size = 4
$T10 = -512						; size = 28
$T11 = -476						; size = 28
$T12 = -440						; size = 4
$T13 = -428						; size = 4
$T14 = -416						; size = 28
$T15 = -380						; size = 28
$T16 = -344						; size = 4
$T17 = -332						; size = 4
$T18 = -320						; size = 4
$T19 = -308						; size = 4
$T20 = -296						; size = 4
$T21 = -284						; size = 4
$T22 = -272						; size = 4
$T23 = -260						; size = 4
_i$24 = -56						; size = 4
_i$25 = -44						; size = 4
_range$ = -32						; size = 4
_this$ = -20						; size = 4
__$EHRec$ = -12						; size = 12
??0MainGame@@QAE@XZ PROC				; MainGame::MainGame, COMDAT
; _this$ = ecx

; 23   : {

	push	ebp
	mov	ebp, esp
	push	-1
	push	__ehhandler$??0MainGame@@QAE@XZ
	mov	eax, DWORD PTR fs:0
	push	eax
	sub	esp, 656				; 00000290H
	push	ebx
	push	esi
	push	edi
	push	ecx
	lea	edi, DWORD PTR [ebp-668]
	mov	ecx, 164				; 000000a4H
	mov	eax, -858993460				; ccccccccH
	rep stosd
	pop	ecx
	mov	eax, DWORD PTR ___security_cookie
	xor	eax, ebp
	push	eax
	lea	eax, DWORD PTR __$EHRec$[ebp]
	mov	DWORD PTR fs:0, eax
	mov	DWORD PTR _this$[ebp], ecx
	push	OFFSET ??0Box@@QAE@XZ
	push	10000					; 00002710H
	push	32					; 00000020H
	mov	eax, DWORD PTR _this$[ebp]
	add	eax, 20					; 00000014H
	push	eax
	call	??_H@YGXPAXIIP6EPAX0@Z@Z

; 24   : 
; 25   : 
; 26   :     cEO.masterClock = new Clock();

	push	32					; 00000020H
	call	??2@YAPAXI@Z				; operator new
	add	esp, 4
	mov	DWORD PTR $T22[ebp], eax
	mov	DWORD PTR __$EHRec$[ebp+8], 0
	cmp	DWORD PTR $T22[ebp], 0
	je	SHORT $LN11@MainGame
	mov	ecx, DWORD PTR $T22[ebp]
	call	??0Clock@@QAE@XZ			; Clock::Clock
	mov	DWORD PTR tv82[ebp], eax
	jmp	SHORT $LN12@MainGame
$LN11@MainGame:
	mov	DWORD PTR tv82[ebp], 0
$LN12@MainGame:
	mov	eax, DWORD PTR tv82[ebp]
	mov	DWORD PTR $T23[ebp], eax
	mov	DWORD PTR __$EHRec$[ebp+8], -1
	mov	ecx, DWORD PTR _this$[ebp]
	mov	edx, DWORD PTR $T23[ebp]
	mov	DWORD PTR [ecx+12], edx

; 27   :     cEO.eventListener =  new EventListener();

	push	60					; 0000003cH
	call	??2@YAPAXI@Z				; operator new
	add	esp, 4
	mov	DWORD PTR $T20[ebp], eax
	mov	DWORD PTR __$EHRec$[ebp+8], 1
	cmp	DWORD PTR $T20[ebp], 0
	je	SHORT $LN13@MainGame
	mov	ecx, DWORD PTR $T20[ebp]
	call	??0EventListener@@QAE@XZ		; EventListener::EventListener
	mov	DWORD PTR tv95[ebp], eax
	jmp	SHORT $LN14@MainGame
$LN13@MainGame:
	mov	DWORD PTR tv95[ebp], 0
$LN14@MainGame:
	mov	eax, DWORD PTR tv95[ebp]
	mov	DWORD PTR $T21[ebp], eax
	mov	DWORD PTR __$EHRec$[ebp+8], -1
	mov	ecx, DWORD PTR _this$[ebp]
	mov	edx, DWORD PTR $T21[ebp]
	mov	DWORD PTR [ecx+8], edx

; 28   :     cEO.masterClock->Tick();

	mov	eax, DWORD PTR _this$[ebp]
	mov	ecx, DWORD PTR [eax+12]
	call	?Tick@Clock@@QAEXXZ			; Clock::Tick

; 29   :     cEO.platform = new Platform(cEO.eventListener);

	push	56					; 00000038H
	call	??2@YAPAXI@Z				; operator new
	add	esp, 4
	mov	DWORD PTR $T18[ebp], eax
	mov	DWORD PTR __$EHRec$[ebp+8], 2
	cmp	DWORD PTR $T18[ebp], 0
	je	SHORT $LN15@MainGame
	mov	eax, DWORD PTR _this$[ebp]
	mov	ecx, DWORD PTR [eax+8]
	push	ecx
	mov	ecx, DWORD PTR $T18[ebp]
	call	??0Platform@@QAE@PAVEventListener@@@Z	; Platform::Platform
	mov	DWORD PTR tv146[ebp], eax
	jmp	SHORT $LN16@MainGame
$LN15@MainGame:
	mov	DWORD PTR tv146[ebp], 0
$LN16@MainGame:
	mov	edx, DWORD PTR tv146[ebp]
	mov	DWORD PTR $T19[ebp], edx
	mov	DWORD PTR __$EHRec$[ebp+8], -1
	mov	eax, DWORD PTR _this$[ebp]
	mov	ecx, DWORD PTR $T19[ebp]
	mov	DWORD PTR [eax+4], ecx

; 30   :     cEO.platform->Init(1300, 800, "Game");

	push	OFFSET ??_C@_04IBBNLEM@Game?$AA@
	push	800					; 00000320H
	push	1300					; 00000514H
	mov	eax, DWORD PTR _this$[ebp]
	mov	ecx, DWORD PTR [eax+4]
	call	?Init@Platform@@QAEXIIPBD@Z		; Platform::Init

; 31   :     cEO.resourceManager = new ResourceManager(cEO.platform);

	push	16					; 00000010H
	call	??2@YAPAXI@Z				; operator new
	add	esp, 4
	mov	DWORD PTR $T16[ebp], eax
	mov	DWORD PTR __$EHRec$[ebp+8], 3
	cmp	DWORD PTR $T16[ebp], 0
	je	SHORT $LN17@MainGame
	push	16					; 00000010H
	mov	ecx, DWORD PTR $T16[ebp]
	call	?__autoclassinit2@ResourceManager@@QAEXI@Z
	mov	eax, DWORD PTR _this$[ebp]
	mov	ecx, DWORD PTR [eax+4]
	push	ecx
	mov	ecx, DWORD PTR $T16[ebp]
	call	??0ResourceManager@@QAE@PAVPlatform@@@Z	; ResourceManager::ResourceManager
	mov	DWORD PTR tv170[ebp], eax
	jmp	SHORT $LN18@MainGame
$LN17@MainGame:
	mov	DWORD PTR tv170[ebp], 0
$LN18@MainGame:
	mov	edx, DWORD PTR tv170[ebp]
	mov	DWORD PTR $T17[ebp], edx
	mov	DWORD PTR __$EHRec$[ebp+8], -1
	mov	eax, DWORD PTR _this$[ebp]
	mov	ecx, DWORD PTR $T17[ebp]
	mov	DWORD PTR [eax+16], ecx

; 32   :     std::cout << "time to init window: " + std::to_string(cEO.masterClock->Tock()) << std::endl;

	mov	esi, esp
	push	OFFSET ??$endl@DU?$char_traits@D@std@@@std@@YAAAV?$basic_ostream@DU?$char_traits@D@std@@@0@AAV10@@Z ; std::endl<char,std::char_traits<char> >
	mov	eax, DWORD PTR _this$[ebp]
	mov	ecx, DWORD PTR [eax+12]
	call	?Tock@Clock@@QAENXZ			; Clock::Tock
	sub	esp, 8
	fstp	QWORD PTR [esp]
	lea	ecx, DWORD PTR $T15[ebp]
	push	ecx
	call	?to_string@std@@YA?AV?$basic_string@DU?$char_traits@D@std@@V?$allocator@D@2@@1@N@Z ; std::to_string
	add	esp, 12					; 0000000cH
	mov	DWORD PTR tv350[ebp], eax
	mov	edx, DWORD PTR tv350[ebp]
	mov	DWORD PTR tv327[ebp], edx
	mov	DWORD PTR __$EHRec$[ebp+8], 4
	mov	eax, DWORD PTR tv327[ebp]
	push	eax
	push	OFFSET ??_C@_0BG@KACMCBJI@time?5to?5init?5window?3?5?$AA@
	lea	ecx, DWORD PTR $T14[ebp]
	push	ecx
	call	??$?HDU?$char_traits@D@std@@V?$allocator@D@1@@std@@YA?AV?$basic_string@DU?$char_traits@D@std@@V?$allocator@D@2@@0@PBD$$QAV10@@Z ; std::operator+<char,std::char_traits<char>,std::allocator<char> >
	add	esp, 12					; 0000000cH
	mov	DWORD PTR tv351[ebp], eax
	mov	edx, DWORD PTR tv351[ebp]
	mov	DWORD PTR tv329[ebp], edx
	mov	BYTE PTR __$EHRec$[ebp+8], 5
	mov	eax, DWORD PTR tv329[ebp]
	push	eax
	mov	ecx, DWORD PTR __imp_?cout@std@@3V?$basic_ostream@DU?$char_traits@D@std@@@1@A
	push	ecx
	call	??$?6DU?$char_traits@D@std@@V?$allocator@D@1@@std@@YAAAV?$basic_ostream@DU?$char_traits@D@std@@@0@AAV10@ABV?$basic_string@DU?$char_traits@D@std@@V?$allocator@D@2@@0@@Z ; std::operator<<<char,std::char_traits<char>,std::allocator<char> >
	add	esp, 8
	mov	ecx, eax
	call	DWORD PTR __imp_??6?$basic_ostream@DU?$char_traits@D@std@@@std@@QAEAAV01@P6AAAV01@AAV01@@Z@Z
	cmp	esi, esp
	call	__RTC_CheckEsp
	mov	BYTE PTR __$EHRec$[ebp+8], 4
	lea	ecx, DWORD PTR $T14[ebp]
	call	??1?$basic_string@DU?$char_traits@D@std@@V?$allocator@D@2@@std@@QAE@XZ ; std::basic_string<char,std::char_traits<char>,std::allocator<char> >::~basic_string<char,std::char_traits<char>,std::allocator<char> >
	mov	DWORD PTR __$EHRec$[ebp+8], -1
	lea	ecx, DWORD PTR $T15[ebp]
	call	??1?$basic_string@DU?$char_traits@D@std@@V?$allocator@D@2@@std@@QAE@XZ ; std::basic_string<char,std::char_traits<char>,std::allocator<char> >::~basic_string<char,std::char_traits<char>,std::allocator<char> >

; 33   :     cEO.masterClock->Tick();

	mov	eax, DWORD PTR _this$[ebp]
	mov	ecx, DWORD PTR [eax+12]
	call	?Tick@Clock@@QAEXXZ			; Clock::Tick

; 34   :     cEO.graphicsController = new GraphicsController(*cEO.platform->GetWindowInfo());

	push	76					; 0000004cH
	call	??2@YAPAXI@Z				; operator new
	add	esp, 4
	mov	DWORD PTR $T12[ebp], eax
	mov	DWORD PTR __$EHRec$[ebp+8], 6
	cmp	DWORD PTR $T12[ebp], 0
	je	SHORT $LN19@MainGame
	mov	eax, DWORD PTR _this$[ebp]
	mov	ecx, DWORD PTR [eax+4]
	call	?GetWindowInfo@Platform@@QAEPAUWindowInfo@@XZ ; Platform::GetWindowInfo
	sub	esp, 12					; 0000000cH
	mov	ecx, esp
	mov	edx, DWORD PTR [eax]
	mov	DWORD PTR [ecx], edx
	mov	edx, DWORD PTR [eax+4]
	mov	DWORD PTR [ecx+4], edx
	mov	eax, DWORD PTR [eax+8]
	mov	DWORD PTR [ecx+8], eax
	mov	ecx, DWORD PTR $T12[ebp]
	call	??0GraphicsController@@QAE@UWindowInfo@@@Z ; GraphicsController::GraphicsController
	mov	DWORD PTR tv211[ebp], eax
	jmp	SHORT $LN20@MainGame
$LN19@MainGame:
	mov	DWORD PTR tv211[ebp], 0
$LN20@MainGame:
	mov	ecx, DWORD PTR tv211[ebp]
	mov	DWORD PTR $T13[ebp], ecx
	mov	DWORD PTR __$EHRec$[ebp+8], -1
	mov	edx, DWORD PTR _this$[ebp]
	mov	eax, DWORD PTR $T13[ebp]
	mov	DWORD PTR [edx], eax

; 35   :     std::cout << "time to init graphicscontroller: " + std::to_string(cEO.masterClock->Tock()) << std::endl;

	mov	esi, esp
	push	OFFSET ??$endl@DU?$char_traits@D@std@@@std@@YAAAV?$basic_ostream@DU?$char_traits@D@std@@@0@AAV10@@Z ; std::endl<char,std::char_traits<char> >
	mov	eax, DWORD PTR _this$[ebp]
	mov	ecx, DWORD PTR [eax+12]
	call	?Tock@Clock@@QAENXZ			; Clock::Tock
	sub	esp, 8
	fstp	QWORD PTR [esp]
	lea	ecx, DWORD PTR $T11[ebp]
	push	ecx
	call	?to_string@std@@YA?AV?$basic_string@DU?$char_traits@D@std@@V?$allocator@D@2@@1@N@Z ; std::to_string
	add	esp, 12					; 0000000cH
	mov	DWORD PTR tv354[ebp], eax
	mov	edx, DWORD PTR tv354[ebp]
	mov	DWORD PTR tv333[ebp], edx
	mov	DWORD PTR __$EHRec$[ebp+8], 7
	mov	eax, DWORD PTR tv333[ebp]
	push	eax
	push	OFFSET ??_C@_0CC@PKKLOKEM@time?5to?5init?5graphicscontroller?3@
	lea	ecx, DWORD PTR $T10[ebp]
	push	ecx
	call	??$?HDU?$char_traits@D@std@@V?$allocator@D@1@@std@@YA?AV?$basic_string@DU?$char_traits@D@std@@V?$allocator@D@2@@0@PBD$$QAV10@@Z ; std::operator+<char,std::char_traits<char>,std::allocator<char> >
	add	esp, 12					; 0000000cH
	mov	DWORD PTR tv355[ebp], eax
	mov	edx, DWORD PTR tv355[ebp]
	mov	DWORD PTR tv335[ebp], edx
	mov	BYTE PTR __$EHRec$[ebp+8], 8
	mov	eax, DWORD PTR tv335[ebp]
	push	eax
	mov	ecx, DWORD PTR __imp_?cout@std@@3V?$basic_ostream@DU?$char_traits@D@std@@@1@A
	push	ecx
	call	??$?6DU?$char_traits@D@std@@V?$allocator@D@1@@std@@YAAAV?$basic_ostream@DU?$char_traits@D@std@@@0@AAV10@ABV?$basic_string@DU?$char_traits@D@std@@V?$allocator@D@2@@0@@Z ; std::operator<<<char,std::char_traits<char>,std::allocator<char> >
	add	esp, 8
	mov	ecx, eax
	call	DWORD PTR __imp_??6?$basic_ostream@DU?$char_traits@D@std@@@std@@QAEAAV01@P6AAAV01@AAV01@@Z@Z
	cmp	esi, esp
	call	__RTC_CheckEsp
	mov	BYTE PTR __$EHRec$[ebp+8], 7
	lea	ecx, DWORD PTR $T10[ebp]
	call	??1?$basic_string@DU?$char_traits@D@std@@V?$allocator@D@2@@std@@QAE@XZ ; std::basic_string<char,std::char_traits<char>,std::allocator<char> >::~basic_string<char,std::char_traits<char>,std::allocator<char> >
	mov	DWORD PTR __$EHRec$[ebp+8], -1
	lea	ecx, DWORD PTR $T11[ebp]
	call	??1?$basic_string@DU?$char_traits@D@std@@V?$allocator@D@2@@std@@QAE@XZ ; std::basic_string<char,std::char_traits<char>,std::allocator<char> >::~basic_string<char,std::char_traits<char>,std::allocator<char> >

; 36   : 
; 37   : 
; 38   :     i32 range = numBoxes / 10;

	mov	DWORD PTR _range$[ebp], 1000		; 000003e8H

; 39   :     for (int i = 0; i < numBoxes; i++)

	mov	DWORD PTR _i$25[ebp], 0
	jmp	SHORT $LN4@MainGame
$LN2@MainGame:
	mov	eax, DWORD PTR _i$25[ebp]
	add	eax, 1
	mov	DWORD PTR _i$25[ebp], eax
$LN4@MainGame:
	cmp	DWORD PTR _i$25[ebp], 10000		; 00002710H
	jae	$LN3@MainGame

; 40   :     {
; 41   :         if (i % 1)

	mov	eax, DWORD PTR _i$25[ebp]
	and	eax, -2147483648			; 80000000H
	jns	SHORT $LN33@MainGame
	dec	eax
	or	eax, -1
	inc	eax
$LN33@MainGame:
	test	eax, eax
	je	SHORT $LN8@MainGame

; 42   :         {
; 43   :             boxes[i].texture = cEO.resourceManager->GetTexture("data\\assets\\textures\\awesomeface.bmp");

	sub	esp, 28					; 0000001cH
	mov	ecx, esp
	mov	DWORD PTR $T9[ebp], esp
	push	OFFSET ??_C@_0CF@FDKOCCIO@data?2assets?2textures?2awesomeface@
	call	??0?$basic_string@DU?$char_traits@D@std@@V?$allocator@D@2@@std@@QAE@PBD@Z ; std::basic_string<char,std::char_traits<char>,std::allocator<char> >::basic_string<char,std::char_traits<char>,std::allocator<char> >
	mov	DWORD PTR tv337[ebp], eax
	lea	eax, DWORD PTR $T8[ebp]
	push	eax
	mov	ecx, DWORD PTR _this$[ebp]
	mov	ecx, DWORD PTR [ecx+16]
	call	?GetTexture@ResourceManager@@QAE?AUTextureInfo@@V?$basic_string@DU?$char_traits@D@std@@V?$allocator@D@2@@std@@@Z ; ResourceManager::GetTexture
	mov	DWORD PTR tv338[ebp], eax
	mov	edx, DWORD PTR _i$25[ebp]
	shl	edx, 5
	mov	eax, DWORD PTR _this$[ebp]
	lea	ecx, DWORD PTR [eax+edx+20]
	mov	edx, DWORD PTR tv338[ebp]
	mov	eax, DWORD PTR [edx]
	mov	DWORD PTR [ecx], eax
	mov	eax, DWORD PTR [edx+4]
	mov	DWORD PTR [ecx+4], eax
	mov	eax, DWORD PTR [edx+8]
	mov	DWORD PTR [ecx+8], eax
	mov	eax, DWORD PTR [edx+12]
	mov	DWORD PTR [ecx+12], eax
	mov	edx, DWORD PTR [edx+16]
	mov	DWORD PTR [ecx+16], edx

; 44   :         }
; 45   :         else

	jmp	SHORT $LN9@MainGame
$LN8@MainGame:

; 46   :         {
; 47   :             boxes[i].texture = cEO.resourceManager->GetTexture("data\\assets\\textures\\container.bmp");

	sub	esp, 28					; 0000001cH
	mov	ecx, esp
	mov	DWORD PTR $T7[ebp], esp
	push	OFFSET ??_C@_0CD@PPBHHLFI@data?2assets?2textures?2container?4b@
	call	??0?$basic_string@DU?$char_traits@D@std@@V?$allocator@D@2@@std@@QAE@PBD@Z ; std::basic_string<char,std::char_traits<char>,std::allocator<char> >::basic_string<char,std::char_traits<char>,std::allocator<char> >
	mov	DWORD PTR tv340[ebp], eax
	lea	eax, DWORD PTR $T6[ebp]
	push	eax
	mov	ecx, DWORD PTR _this$[ebp]
	mov	ecx, DWORD PTR [ecx+16]
	call	?GetTexture@ResourceManager@@QAE?AUTextureInfo@@V?$basic_string@DU?$char_traits@D@std@@V?$allocator@D@2@@std@@@Z ; ResourceManager::GetTexture
	mov	DWORD PTR tv341[ebp], eax
	mov	edx, DWORD PTR _i$25[ebp]
	shl	edx, 5
	mov	eax, DWORD PTR _this$[ebp]
	lea	ecx, DWORD PTR [eax+edx+20]
	mov	edx, DWORD PTR tv341[ebp]
	mov	eax, DWORD PTR [edx]
	mov	DWORD PTR [ecx], eax
	mov	eax, DWORD PTR [edx+4]
	mov	DWORD PTR [ecx+4], eax
	mov	eax, DWORD PTR [edx+8]
	mov	DWORD PTR [ecx+8], eax
	mov	eax, DWORD PTR [edx+12]
	mov	DWORD PTR [ecx+12], eax
	mov	edx, DWORD PTR [edx+16]
	mov	DWORD PTR [ecx+16], edx
$LN9@MainGame:

; 48   :         }
; 49   :         boxes[i].position = glm::vec3((float)((rand() % range) - (range / 2)),

	mov	esi, esp
	call	DWORD PTR __imp__rand
	cmp	esi, esp
	call	__RTC_CheckEsp
	cdq
	idiv	DWORD PTR _range$[ebp]
	mov	ecx, edx
	mov	eax, DWORD PTR _range$[ebp]
	cdq
	sub	eax, edx
	sar	eax, 1
	sub	ecx, eax
	cvtsi2ss xmm0, ecx
	movss	DWORD PTR $T4[ebp], xmm0
	mov	esi, esp
	call	DWORD PTR __imp__rand
	cmp	esi, esp
	call	__RTC_CheckEsp
	cdq
	idiv	DWORD PTR _range$[ebp]
	mov	ecx, edx
	mov	eax, DWORD PTR _range$[ebp]
	cdq
	sub	eax, edx
	sar	eax, 1
	sub	ecx, eax
	cvtsi2ss xmm0, ecx
	movss	DWORD PTR $T3[ebp], xmm0
	mov	esi, esp
	call	DWORD PTR __imp__rand
	cmp	esi, esp
	call	__RTC_CheckEsp
	cdq
	idiv	DWORD PTR _range$[ebp]
	mov	ecx, edx
	mov	eax, DWORD PTR _range$[ebp]
	cdq
	sub	eax, edx
	sar	eax, 1
	sub	ecx, eax
	cvtsi2ss xmm0, ecx
	movss	DWORD PTR $T2[ebp], xmm0
	lea	edx, DWORD PTR $T4[ebp]
	push	edx
	lea	eax, DWORD PTR $T3[ebp]
	push	eax
	lea	ecx, DWORD PTR $T2[ebp]
	push	ecx
	lea	ecx, DWORD PTR $T5[ebp]
	call	??0?$tvec3@M$0A@@glm@@QAE@ABM00@Z	; glm::tvec3<float,0>::tvec3<float,0>
	mov	edx, DWORD PTR _i$25[ebp]
	shl	edx, 5
	mov	ecx, DWORD PTR _this$[ebp]
	lea	edx, DWORD PTR [ecx+edx+40]
	mov	ecx, DWORD PTR [eax]
	mov	DWORD PTR [edx], ecx
	mov	ecx, DWORD PTR [eax+4]
	mov	DWORD PTR [edx+4], ecx
	mov	eax, DWORD PTR [eax+8]
	mov	DWORD PTR [edx+8], eax

; 50   :                                       (float)((rand() % range) - (range / 2)),
; 51   :                                       (float)((rand() % range) - (range / 2)));
; 52   : 
; 53   :     }

	jmp	$LN2@MainGame
$LN3@MainGame:

; 54   :     for (int i = 0; i < 2; i++)

	mov	DWORD PTR _i$24[ebp], 0
	jmp	SHORT $LN7@MainGame
$LN5@MainGame:
	mov	eax, DWORD PTR _i$24[ebp]
	add	eax, 1
	mov	DWORD PTR _i$24[ebp], eax
$LN7@MainGame:
	cmp	DWORD PTR _i$24[ebp], 2
	jge	SHORT $LN6@MainGame

; 55   :     {
; 56   :         cEO.graphicsController->BindTexture(&boxes[i].texture);

	mov	eax, DWORD PTR _i$24[ebp]
	shl	eax, 5
	mov	ecx, DWORD PTR _this$[ebp]
	lea	edx, DWORD PTR [ecx+eax+20]
	push	edx
	mov	eax, DWORD PTR _this$[ebp]
	mov	ecx, DWORD PTR [eax]
	call	?BindTexture@GraphicsController@@QAEXPBUTextureInfo@@@Z ; GraphicsController::BindTexture

; 57   :     }

	jmp	SHORT $LN5@MainGame
$LN6@MainGame:

; 58   : 
; 59   : 
; 60   : 
; 61   : 
; 62   : }

	mov	eax, DWORD PTR _this$[ebp]
	mov	ecx, DWORD PTR __$EHRec$[ebp]
	mov	DWORD PTR fs:0, ecx
	pop	ecx
	pop	edi
	pop	esi
	pop	ebx
	add	esp, 668				; 0000029cH
	cmp	ebp, esp
	call	__RTC_CheckEsp
	mov	esp, ebp
	pop	ebp
	ret	0
_TEXT	ENDS
;	COMDAT text$x
text$x	SEGMENT
__unwindfunclet$??0MainGame@@QAE@XZ$0:
	push	32					; 00000020H
	mov	eax, DWORD PTR $T22[ebp]
	push	eax
	call	??3@YAXPAXI@Z				; operator delete
	add	esp, 8
	ret	0
__unwindfunclet$??0MainGame@@QAE@XZ$1:
	push	60					; 0000003cH
	mov	eax, DWORD PTR $T20[ebp]
	push	eax
	call	??3@YAXPAXI@Z				; operator delete
	add	esp, 8
	ret	0
__unwindfunclet$??0MainGame@@QAE@XZ$2:
	push	56					; 00000038H
	mov	eax, DWORD PTR $T18[ebp]
	push	eax
	call	??3@YAXPAXI@Z				; operator delete
	add	esp, 8
	ret	0
__unwindfunclet$??0MainGame@@QAE@XZ$3:
	push	16					; 00000010H
	mov	eax, DWORD PTR $T16[ebp]
	push	eax
	call	??3@YAXPAXI@Z				; operator delete
	add	esp, 8
	ret	0
__unwindfunclet$??0MainGame@@QAE@XZ$4:
	lea	ecx, DWORD PTR $T15[ebp]
	jmp	??1?$basic_string@DU?$char_traits@D@std@@V?$allocator@D@2@@std@@QAE@XZ ; std::basic_string<char,std::char_traits<char>,std::allocator<char> >::~basic_string<char,std::char_traits<char>,std::allocator<char> >
__unwindfunclet$??0MainGame@@QAE@XZ$5:
	lea	ecx, DWORD PTR $T14[ebp]
	jmp	??1?$basic_string@DU?$char_traits@D@std@@V?$allocator@D@2@@std@@QAE@XZ ; std::basic_string<char,std::char_traits<char>,std::allocator<char> >::~basic_string<char,std::char_traits<char>,std::allocator<char> >
__unwindfunclet$??0MainGame@@QAE@XZ$6:
	push	76					; 0000004cH
	mov	eax, DWORD PTR $T12[ebp]
	push	eax
	call	??3@YAXPAXI@Z				; operator delete
	add	esp, 8
	ret	0
__unwindfunclet$??0MainGame@@QAE@XZ$7:
	lea	ecx, DWORD PTR $T11[ebp]
	jmp	??1?$basic_string@DU?$char_traits@D@std@@V?$allocator@D@2@@std@@QAE@XZ ; std::basic_string<char,std::char_traits<char>,std::allocator<char> >::~basic_string<char,std::char_traits<char>,std::allocator<char> >
__unwindfunclet$??0MainGame@@QAE@XZ$8:
	lea	ecx, DWORD PTR $T10[ebp]
	jmp	??1?$basic_string@DU?$char_traits@D@std@@V?$allocator@D@2@@std@@QAE@XZ ; std::basic_string<char,std::char_traits<char>,std::allocator<char> >::~basic_string<char,std::char_traits<char>,std::allocator<char> >
__ehhandler$??0MainGame@@QAE@XZ:
	mov	edx, DWORD PTR [esp+8]
	lea	eax, DWORD PTR [edx+12]
	mov	ecx, DWORD PTR [edx-672]
	xor	ecx, eax
	call	@__security_check_cookie@4
	mov	eax, OFFSET __ehfuncinfo$??0MainGame@@QAE@XZ
	jmp	___CxxFrameHandler3
text$x	ENDS
??0MainGame@@QAE@XZ ENDP				; MainGame::MainGame
; Function compile flags: /Odtp /RTCsu /ZI
;	COMDAT ??0Box@@QAE@XZ
_TEXT	SEGMENT
_this$ = -8						; size = 4
??0Box@@QAE@XZ PROC					; Box::Box, COMDAT
; _this$ = ecx
	push	ebp
	mov	ebp, esp
	sub	esp, 204				; 000000ccH
	push	ebx
	push	esi
	push	edi
	push	ecx
	lea	edi, DWORD PTR [ebp-204]
	mov	ecx, 51					; 00000033H
	mov	eax, -858993460				; ccccccccH
	rep stosd
	pop	ecx
	mov	DWORD PTR _this$[ebp], ecx
	mov	ecx, DWORD PTR _this$[ebp]
	add	ecx, 20					; 00000014H
	call	??0?$tvec3@M$0A@@glm@@QAE@XZ		; glm::tvec3<float,0>::tvec3<float,0>
	mov	eax, DWORD PTR _this$[ebp]
	pop	edi
	pop	esi
	pop	ebx
	add	esp, 204				; 000000ccH
	cmp	ebp, esp
	call	__RTC_CheckEsp
	mov	esp, ebp
	pop	ebp
	ret	0
??0Box@@QAE@XZ ENDP					; Box::Box
_TEXT	ENDS
; Function compile flags: /Odtp /RTCsu /ZI
;	COMDAT ??_GClock@@QAEPAXI@Z
_TEXT	SEGMENT
_this$ = -8						; size = 4
___flags$ = 8						; size = 4
??_GClock@@QAEPAXI@Z PROC				; Clock::`scalar deleting destructor', COMDAT
; _this$ = ecx
	push	ebp
	mov	ebp, esp
	sub	esp, 204				; 000000ccH
	push	ebx
	push	esi
	push	edi
	push	ecx
	lea	edi, DWORD PTR [ebp-204]
	mov	ecx, 51					; 00000033H
	mov	eax, -858993460				; ccccccccH
	rep stosd
	pop	ecx
	mov	DWORD PTR _this$[ebp], ecx
	mov	ecx, DWORD PTR _this$[ebp]
	call	??1Clock@@QAE@XZ			; Clock::~Clock
	mov	eax, DWORD PTR ___flags$[ebp]
	and	eax, 1
	je	SHORT $LN2@scalar
	push	32					; 00000020H
	mov	eax, DWORD PTR _this$[ebp]
	push	eax
	call	??3@YAXPAXI@Z				; operator delete
	add	esp, 8
$LN2@scalar:
	mov	eax, DWORD PTR _this$[ebp]
	pop	edi
	pop	esi
	pop	ebx
	add	esp, 204				; 000000ccH
	cmp	ebp, esp
	call	__RTC_CheckEsp
	mov	esp, ebp
	pop	ebp
	ret	4
??_GClock@@QAEPAXI@Z ENDP				; Clock::`scalar deleting destructor'
_TEXT	ENDS
; Function compile flags: /Odtp /RTCsu /ZI
;	COMDAT ??_GGraphicsController@@QAEPAXI@Z
_TEXT	SEGMENT
_this$ = -8						; size = 4
___flags$ = 8						; size = 4
??_GGraphicsController@@QAEPAXI@Z PROC			; GraphicsController::`scalar deleting destructor', COMDAT
; _this$ = ecx
	push	ebp
	mov	ebp, esp
	sub	esp, 204				; 000000ccH
	push	ebx
	push	esi
	push	edi
	push	ecx
	lea	edi, DWORD PTR [ebp-204]
	mov	ecx, 51					; 00000033H
	mov	eax, -858993460				; ccccccccH
	rep stosd
	pop	ecx
	mov	DWORD PTR _this$[ebp], ecx
	mov	ecx, DWORD PTR _this$[ebp]
	call	??1GraphicsController@@QAE@XZ		; GraphicsController::~GraphicsController
	mov	eax, DWORD PTR ___flags$[ebp]
	and	eax, 1
	je	SHORT $LN2@scalar
	push	76					; 0000004cH
	mov	eax, DWORD PTR _this$[ebp]
	push	eax
	call	??3@YAXPAXI@Z				; operator delete
	add	esp, 8
$LN2@scalar:
	mov	eax, DWORD PTR _this$[ebp]
	pop	edi
	pop	esi
	pop	ebx
	add	esp, 204				; 000000ccH
	cmp	ebp, esp
	call	__RTC_CheckEsp
	mov	esp, ebp
	pop	ebp
	ret	4
??_GGraphicsController@@QAEPAXI@Z ENDP			; GraphicsController::`scalar deleting destructor'
_TEXT	ENDS
; Function compile flags: /Odtp /RTCsu /ZI
;	COMDAT ?__autoclassinit2@ResourceManager@@QAEXI@Z
_TEXT	SEGMENT
_this$ = -8						; size = 4
_classSize$ = 8						; size = 4
?__autoclassinit2@ResourceManager@@QAEXI@Z PROC		; ResourceManager::__autoclassinit2, COMDAT
; _this$ = ecx
	push	ebp
	mov	ebp, esp
	sub	esp, 204				; 000000ccH
	push	ebx
	push	esi
	push	edi
	push	ecx
	lea	edi, DWORD PTR [ebp-204]
	mov	ecx, 51					; 00000033H
	mov	eax, -858993460				; ccccccccH
	rep stosd
	pop	ecx
	mov	DWORD PTR _this$[ebp], ecx
	mov	eax, DWORD PTR _classSize$[ebp]
	push	eax
	push	0
	mov	ecx, DWORD PTR _this$[ebp]
	push	ecx
	call	_memset
	add	esp, 12					; 0000000cH
	pop	edi
	pop	esi
	pop	ebx
	add	esp, 204				; 000000ccH
	cmp	ebp, esp
	call	__RTC_CheckEsp
	mov	esp, ebp
	pop	ebp
	ret	4
?__autoclassinit2@ResourceManager@@QAEXI@Z ENDP		; ResourceManager::__autoclassinit2
_TEXT	ENDS
; Function compile flags: /Odtp /RTCsu /ZI
;	COMDAT ??_GPlatform@@QAEPAXI@Z
_TEXT	SEGMENT
_this$ = -8						; size = 4
___flags$ = 8						; size = 4
??_GPlatform@@QAEPAXI@Z PROC				; Platform::`scalar deleting destructor', COMDAT
; _this$ = ecx
	push	ebp
	mov	ebp, esp
	sub	esp, 204				; 000000ccH
	push	ebx
	push	esi
	push	edi
	push	ecx
	lea	edi, DWORD PTR [ebp-204]
	mov	ecx, 51					; 00000033H
	mov	eax, -858993460				; ccccccccH
	rep stosd
	pop	ecx
	mov	DWORD PTR _this$[ebp], ecx
	mov	ecx, DWORD PTR _this$[ebp]
	call	??1Platform@@QAE@XZ			; Platform::~Platform
	mov	eax, DWORD PTR ___flags$[ebp]
	and	eax, 1
	je	SHORT $LN2@scalar
	push	56					; 00000038H
	mov	eax, DWORD PTR _this$[ebp]
	push	eax
	call	??3@YAXPAXI@Z				; operator delete
	add	esp, 8
$LN2@scalar:
	mov	eax, DWORD PTR _this$[ebp]
	pop	edi
	pop	esi
	pop	ebx
	add	esp, 204				; 000000ccH
	cmp	ebp, esp
	call	__RTC_CheckEsp
	mov	esp, ebp
	pop	ebp
	ret	4
??_GPlatform@@QAEPAXI@Z ENDP				; Platform::`scalar deleting destructor'
_TEXT	ENDS
; Function compile flags: /Odtp /RTCsu /ZI
;	COMDAT ??_GEventListener@@QAEPAXI@Z
_TEXT	SEGMENT
_this$ = -8						; size = 4
___flags$ = 8						; size = 4
??_GEventListener@@QAEPAXI@Z PROC			; EventListener::`scalar deleting destructor', COMDAT
; _this$ = ecx
	push	ebp
	mov	ebp, esp
	sub	esp, 204				; 000000ccH
	push	ebx
	push	esi
	push	edi
	push	ecx
	lea	edi, DWORD PTR [ebp-204]
	mov	ecx, 51					; 00000033H
	mov	eax, -858993460				; ccccccccH
	rep stosd
	pop	ecx
	mov	DWORD PTR _this$[ebp], ecx
	mov	ecx, DWORD PTR _this$[ebp]
	call	??1EventListener@@QAE@XZ		; EventListener::~EventListener
	mov	eax, DWORD PTR ___flags$[ebp]
	and	eax, 1
	je	SHORT $LN2@scalar
	push	60					; 0000003cH
	mov	eax, DWORD PTR _this$[ebp]
	push	eax
	call	??3@YAXPAXI@Z				; operator delete
	add	esp, 8
$LN2@scalar:
	mov	eax, DWORD PTR _this$[ebp]
	pop	edi
	pop	esi
	pop	ebx
	add	esp, 204				; 000000ccH
	cmp	ebp, esp
	call	__RTC_CheckEsp
	mov	esp, ebp
	pop	ebp
	ret	4
??_GEventListener@@QAEPAXI@Z ENDP			; EventListener::`scalar deleting destructor'
_TEXT	ENDS
; Function compile flags: /Odtp /RTCsu /ZI
; File d:\scottsdocs\sourcecode\twinsouls\deps\include\glm\detail\type_vec3.inl
;	COMDAT ??0?$tvec3@M$0A@@glm@@QAE@ABM00@Z
_TEXT	SEGMENT
_this$ = -8						; size = 4
_a$ = 8							; size = 4
_b$ = 12						; size = 4
_c$ = 16						; size = 4
??0?$tvec3@M$0A@@glm@@QAE@ABM00@Z PROC			; glm::tvec3<float,0>::tvec3<float,0>, COMDAT
; _this$ = ecx

; 73   : 	{}

	push	ebp
	mov	ebp, esp
	sub	esp, 204				; 000000ccH
	push	ebx
	push	esi
	push	edi
	push	ecx
	lea	edi, DWORD PTR [ebp-204]
	mov	ecx, 51					; 00000033H
	mov	eax, -858993460				; ccccccccH
	rep stosd
	pop	ecx
	mov	DWORD PTR _this$[ebp], ecx

; 72   : 		: x(a), y(b), z(c)

	mov	eax, DWORD PTR _this$[ebp]
	mov	ecx, DWORD PTR _a$[ebp]
	mov	edx, DWORD PTR [ecx]
	mov	DWORD PTR [eax], edx
	mov	eax, DWORD PTR _this$[ebp]
	mov	ecx, DWORD PTR _b$[ebp]
	mov	edx, DWORD PTR [ecx]
	mov	DWORD PTR [eax+4], edx
	mov	eax, DWORD PTR _this$[ebp]
	mov	ecx, DWORD PTR _c$[ebp]
	mov	edx, DWORD PTR [ecx]
	mov	DWORD PTR [eax+8], edx

; 73   : 	{}

	mov	eax, DWORD PTR _this$[ebp]
	pop	edi
	pop	esi
	pop	ebx
	mov	esp, ebp
	pop	ebp
	ret	12					; 0000000cH
??0?$tvec3@M$0A@@glm@@QAE@ABM00@Z ENDP			; glm::tvec3<float,0>::tvec3<float,0>
_TEXT	ENDS
; Function compile flags: /Odtp /RTCsu /ZI
; File d:\scottsdocs\sourcecode\twinsouls\deps\include\glm\detail\type_vec3.inl
;	COMDAT ??0?$tvec3@M$0A@@glm@@QAE@XZ
_TEXT	SEGMENT
_this$ = -8						; size = 4
??0?$tvec3@M$0A@@glm@@QAE@XZ PROC			; glm::tvec3<float,0>::tvec3<float,0>, COMDAT
; _this$ = ecx

; 43   : 		{}

	push	ebp
	mov	ebp, esp
	sub	esp, 204				; 000000ccH
	push	ebx
	push	esi
	push	edi
	push	ecx
	lea	edi, DWORD PTR [ebp-204]
	mov	ecx, 51					; 00000033H
	mov	eax, -858993460				; ccccccccH
	rep stosd
	pop	ecx
	mov	DWORD PTR _this$[ebp], ecx

; 41   : 				: x(0), y(0), z(0)

	mov	eax, DWORD PTR _this$[ebp]
	movss	xmm0, DWORD PTR __real@00000000
	movss	DWORD PTR [eax], xmm0
	mov	eax, DWORD PTR _this$[ebp]
	movss	xmm0, DWORD PTR __real@00000000
	movss	DWORD PTR [eax+4], xmm0
	mov	eax, DWORD PTR _this$[ebp]
	movss	xmm0, DWORD PTR __real@00000000
	movss	DWORD PTR [eax+8], xmm0

; 43   : 		{}

	mov	eax, DWORD PTR _this$[ebp]
	pop	edi
	pop	esi
	pop	ebx
	mov	esp, ebp
	pop	ebp
	ret	0
??0?$tvec3@M$0A@@glm@@QAE@XZ ENDP			; glm::tvec3<float,0>::tvec3<float,0>
_TEXT	ENDS
; Function compile flags: /Odtp /RTCsu /ZI
; File d:\appdata\vsp\vc\include\string
;	COMDAT ??$_Floating_to_string@N@std@@YA?AV?$basic_string@DU?$char_traits@D@std@@V?$allocator@D@2@@0@PBDN@Z
_TEXT	SEGMENT
$T2 = -264						; size = 4
__Str$ = -60						; size = 28
__Len$ = -24						; size = 4
__$ArrayPad$ = -16					; size = 4
__$EHRec$ = -12						; size = 12
___$ReturnUdt$ = 8					; size = 4
__Fmt$ = 12						; size = 4
__Val$ = 16						; size = 8
??$_Floating_to_string@N@std@@YA?AV?$basic_string@DU?$char_traits@D@std@@V?$allocator@D@2@@0@PBDN@Z PROC ; std::_Floating_to_string<double>, COMDAT

; 499  : 	{	// convert _Ty to string

	push	ebp
	mov	ebp, esp
	push	-1
	push	__ehhandler$??$_Floating_to_string@N@std@@YA?AV?$basic_string@DU?$char_traits@D@std@@V?$allocator@D@2@@0@PBDN@Z
	mov	eax, DWORD PTR fs:0
	push	eax
	sub	esp, 256				; 00000100H
	push	ebx
	push	esi
	push	edi
	lea	edi, DWORD PTR [ebp-268]
	mov	ecx, 64					; 00000040H
	mov	eax, -858993460				; ccccccccH
	rep stosd
	mov	eax, DWORD PTR ___security_cookie
	xor	eax, ebp
	mov	DWORD PTR __$ArrayPad$[ebp], eax
	push	eax
	lea	eax, DWORD PTR __$EHRec$[ebp]
	mov	DWORD PTR fs:0, eax
	mov	DWORD PTR $T2[ebp], 0

; 500  : 	static_assert(is_floating_point<_Ty>::value,
; 501  : 		"_Ty must be floating point");
; 502  : 
; 503  : 	int _Len = _CSTD _scprintf(_Fmt, _Val);

	sub	esp, 8
	movsd	xmm0, QWORD PTR __Val$[ebp]
	movsd	QWORD PTR [esp], xmm0
	mov	eax, DWORD PTR __Fmt$[ebp]
	push	eax
	call	__scprintf
	add	esp, 12					; 0000000cH
	mov	DWORD PTR __Len$[ebp], eax

; 504  : 	string _Str(_Len + 1, '\0');

	push	0
	mov	eax, DWORD PTR __Len$[ebp]
	add	eax, 1
	push	eax
	lea	ecx, DWORD PTR __Str$[ebp]
	call	??0?$basic_string@DU?$char_traits@D@std@@V?$allocator@D@2@@std@@QAE@ID@Z ; std::basic_string<char,std::char_traits<char>,std::allocator<char> >::basic_string<char,std::char_traits<char>,std::allocator<char> >
	mov	DWORD PTR __$EHRec$[ebp+8], 0

; 505  : 	_CSTD sprintf_s(&_Str[0], _Len + 1, _Fmt, _Val);

	sub	esp, 8
	movsd	xmm0, QWORD PTR __Val$[ebp]
	movsd	QWORD PTR [esp], xmm0
	mov	eax, DWORD PTR __Fmt$[ebp]
	push	eax
	mov	ecx, DWORD PTR __Len$[ebp]
	add	ecx, 1
	push	ecx
	push	0
	lea	ecx, DWORD PTR __Str$[ebp]
	call	??A?$basic_string@DU?$char_traits@D@std@@V?$allocator@D@2@@std@@QAEAADI@Z ; std::basic_string<char,std::char_traits<char>,std::allocator<char> >::operator[]
	push	eax
	call	_sprintf_s
	add	esp, 20					; 00000014H

; 506  : 	_Str.resize(_Len);

	mov	eax, DWORD PTR __Len$[ebp]
	push	eax
	lea	ecx, DWORD PTR __Str$[ebp]
	call	?resize@?$basic_string@DU?$char_traits@D@std@@V?$allocator@D@2@@std@@QAEXI@Z ; std::basic_string<char,std::char_traits<char>,std::allocator<char> >::resize

; 507  : 	return (_Str);

	lea	eax, DWORD PTR __Str$[ebp]
	push	eax
	mov	ecx, DWORD PTR ___$ReturnUdt$[ebp]
	call	??0?$basic_string@DU?$char_traits@D@std@@V?$allocator@D@2@@std@@QAE@$$QAV01@@Z ; std::basic_string<char,std::char_traits<char>,std::allocator<char> >::basic_string<char,std::char_traits<char>,std::allocator<char> >
	mov	ecx, DWORD PTR $T2[ebp]
	or	ecx, 1
	mov	DWORD PTR $T2[ebp], ecx
	mov	DWORD PTR __$EHRec$[ebp+8], -1
	lea	ecx, DWORD PTR __Str$[ebp]
	call	??1?$basic_string@DU?$char_traits@D@std@@V?$allocator@D@2@@std@@QAE@XZ ; std::basic_string<char,std::char_traits<char>,std::allocator<char> >::~basic_string<char,std::char_traits<char>,std::allocator<char> >
	mov	eax, DWORD PTR ___$ReturnUdt$[ebp]

; 508  : 	}

	push	edx
	mov	ecx, ebp
	push	eax
	lea	edx, DWORD PTR $LN9@Floating_t
	call	@_RTC_CheckStackVars@8
	pop	eax
	pop	edx
	mov	ecx, DWORD PTR __$EHRec$[ebp]
	mov	DWORD PTR fs:0, ecx
	pop	ecx
	pop	edi
	pop	esi
	pop	ebx
	mov	ecx, DWORD PTR __$ArrayPad$[ebp]
	xor	ecx, ebp
	call	@__security_check_cookie@4
	add	esp, 268				; 0000010cH
	cmp	ebp, esp
	call	__RTC_CheckEsp
	mov	esp, ebp
	pop	ebp
	ret	0
$LN9@Floating_t:
	DD	1
	DD	$LN8@Floating_t
$LN8@Floating_t:
	DD	-60					; ffffffc4H
	DD	28					; 0000001cH
	DD	$LN6@Floating_t
$LN6@Floating_t:
	DB	95					; 0000005fH
	DB	83					; 00000053H
	DB	116					; 00000074H
	DB	114					; 00000072H
	DB	0
_TEXT	ENDS
;	COMDAT text$x
text$x	SEGMENT
__unwindfunclet$??$_Floating_to_string@N@std@@YA?AV?$basic_string@DU?$char_traits@D@std@@V?$allocator@D@2@@0@PBDN@Z$0:
	lea	ecx, DWORD PTR __Str$[ebp]
	jmp	??1?$basic_string@DU?$char_traits@D@std@@V?$allocator@D@2@@std@@QAE@XZ ; std::basic_string<char,std::char_traits<char>,std::allocator<char> >::~basic_string<char,std::char_traits<char>,std::allocator<char> >
__ehhandler$??$_Floating_to_string@N@std@@YA?AV?$basic_string@DU?$char_traits@D@std@@V?$allocator@D@2@@0@PBDN@Z:
	mov	edx, DWORD PTR [esp+8]
	lea	eax, DWORD PTR [edx+12]
	mov	ecx, DWORD PTR [edx-272]
	xor	ecx, eax
	call	@__security_check_cookie@4
	mov	ecx, DWORD PTR [edx-4]
	xor	ecx, eax
	call	@__security_check_cookie@4
	mov	eax, OFFSET __ehfuncinfo$??$_Floating_to_string@N@std@@YA?AV?$basic_string@DU?$char_traits@D@std@@V?$allocator@D@2@@0@PBDN@Z
	jmp	___CxxFrameHandler3
text$x	ENDS
??$_Floating_to_string@N@std@@YA?AV?$basic_string@DU?$char_traits@D@std@@V?$allocator@D@2@@0@PBDN@Z ENDP ; std::_Floating_to_string<double>
; Function compile flags: /Odtp /RTCsu /ZI
; File d:\appdata\vsp\vc\include\string
;	COMDAT ?to_string@std@@YA?AV?$basic_string@DU?$char_traits@D@std@@V?$allocator@D@2@@1@N@Z
_TEXT	SEGMENT
$T1 = -200						; size = 4
___$ReturnUdt$ = 8					; size = 4
__Val$ = 12						; size = 8
?to_string@std@@YA?AV?$basic_string@DU?$char_traits@D@std@@V?$allocator@D@2@@1@N@Z PROC ; std::to_string, COMDAT

; 572  : 	{	// convert double to string

	push	ebp
	mov	ebp, esp
	sub	esp, 204				; 000000ccH
	push	ebx
	push	esi
	push	edi
	lea	edi, DWORD PTR [ebp-204]
	mov	ecx, 51					; 00000033H
	mov	eax, -858993460				; ccccccccH
	rep stosd
	mov	DWORD PTR $T1[ebp], 0

; 573  : 	return (_Floating_to_string("%f", _Val));

	sub	esp, 8
	movsd	xmm0, QWORD PTR __Val$[ebp]
	movsd	QWORD PTR [esp], xmm0
	push	OFFSET ??_C@_02NJPGOMH@?$CFf?$AA@
	mov	eax, DWORD PTR ___$ReturnUdt$[ebp]
	push	eax
	call	??$_Floating_to_string@N@std@@YA?AV?$basic_string@DU?$char_traits@D@std@@V?$allocator@D@2@@0@PBDN@Z ; std::_Floating_to_string<double>
	add	esp, 16					; 00000010H
	mov	ecx, DWORD PTR $T1[ebp]
	or	ecx, 1
	mov	DWORD PTR $T1[ebp], ecx
	mov	eax, DWORD PTR ___$ReturnUdt$[ebp]

; 574  : 	}

	pop	edi
	pop	esi
	pop	ebx
	add	esp, 204				; 000000ccH
	cmp	ebp, esp
	call	__RTC_CheckEsp
	mov	esp, ebp
	pop	ebp
	ret	0
?to_string@std@@YA?AV?$basic_string@DU?$char_traits@D@std@@V?$allocator@D@2@@1@N@Z ENDP ; std::to_string
_TEXT	ENDS
; Function compile flags: /Odtp /RTCsu /ZI
; File d:\appdata\vsp\vc\include\xstring
;	COMDAT ?_Xran@?$basic_string@DU?$char_traits@D@std@@V?$allocator@D@2@@std@@QBEXXZ
_TEXT	SEGMENT
_this$ = -8						; size = 4
?_Xran@?$basic_string@DU?$char_traits@D@std@@V?$allocator@D@2@@std@@QBEXXZ PROC ; std::basic_string<char,std::char_traits<char>,std::allocator<char> >::_Xran, COMDAT
; _this$ = ecx

; 2251 : 		{	// report an out_of_range error

	push	ebp
	mov	ebp, esp
	sub	esp, 204				; 000000ccH
	push	ebx
	push	esi
	push	edi
	push	ecx
	lea	edi, DWORD PTR [ebp-204]
	mov	ecx, 51					; 00000033H
	mov	eax, -858993460				; ccccccccH
	rep stosd
	pop	ecx
	mov	DWORD PTR _this$[ebp], ecx

; 2252 : 		_Xout_of_range("invalid string position");

	mov	esi, esp
	push	OFFSET ??_C@_0BI@CFPLBAOH@invalid?5string?5position?$AA@
	call	DWORD PTR __imp_?_Xout_of_range@std@@YAXPBD@Z
	cmp	esi, esp
	call	__RTC_CheckEsp
$LN2@Xran:

; 2253 : 		}

	pop	edi
	pop	esi
	pop	ebx
	add	esp, 204				; 000000ccH
	cmp	ebp, esp
	call	__RTC_CheckEsp
	mov	esp, ebp
	pop	ebp
	ret	0
?_Xran@?$basic_string@DU?$char_traits@D@std@@V?$allocator@D@2@@std@@QBEXXZ ENDP ; std::basic_string<char,std::char_traits<char>,std::allocator<char> >::_Xran
_TEXT	ENDS
; Function compile flags: /Odtp /RTCsu /ZI
; File d:\appdata\vsp\vc\include\xstring
;	COMDAT ?_Xlen@?$basic_string@DU?$char_traits@D@std@@V?$allocator@D@2@@std@@QBEXXZ
_TEXT	SEGMENT
_this$ = -8						; size = 4
?_Xlen@?$basic_string@DU?$char_traits@D@std@@V?$allocator@D@2@@std@@QBEXXZ PROC ; std::basic_string<char,std::char_traits<char>,std::allocator<char> >::_Xlen, COMDAT
; _this$ = ecx

; 2246 : 		{	// report a length_error

	push	ebp
	mov	ebp, esp
	sub	esp, 204				; 000000ccH
	push	ebx
	push	esi
	push	edi
	push	ecx
	lea	edi, DWORD PTR [ebp-204]
	mov	ecx, 51					; 00000033H
	mov	eax, -858993460				; ccccccccH
	rep stosd
	pop	ecx
	mov	DWORD PTR _this$[ebp], ecx

; 2247 : 		_Xlength_error("string too long");

	mov	esi, esp
	push	OFFSET ??_C@_0BA@JFNIOLAK@string?5too?5long?$AA@
	call	DWORD PTR __imp_?_Xlength_error@std@@YAXPBD@Z
	cmp	esi, esp
	call	__RTC_CheckEsp
$LN2@Xlen:

; 2248 : 		}

	pop	edi
	pop	esi
	pop	ebx
	add	esp, 204				; 000000ccH
	cmp	ebp, esp
	call	__RTC_CheckEsp
	mov	esp, ebp
	pop	ebp
	ret	0
?_Xlen@?$basic_string@DU?$char_traits@D@std@@V?$allocator@D@2@@std@@QBEXXZ ENDP ; std::basic_string<char,std::char_traits<char>,std::allocator<char> >::_Xlen
_TEXT	ENDS
; Function compile flags: /Odtp /RTCsu /ZI
; File d:\appdata\vsp\vc\include\xstring
;	COMDAT ?_Tidy@?$basic_string@DU?$char_traits@D@std@@V?$allocator@D@2@@std@@QAEX_NI@Z
_TEXT	SEGMENT
__Ptr$1 = -20						; size = 4
_this$ = -8						; size = 4
__Built$ = 8						; size = 1
__Newsize$ = 12						; size = 4
?_Tidy@?$basic_string@DU?$char_traits@D@std@@V?$allocator@D@2@@std@@QAEX_NI@Z PROC ; std::basic_string<char,std::char_traits<char>,std::allocator<char> >::_Tidy, COMDAT
; _this$ = ecx

; 2229 : 		{	// initialize buffer, deallocating any storage

	push	ebp
	mov	ebp, esp
	sub	esp, 216				; 000000d8H
	push	ebx
	push	esi
	push	edi
	push	ecx
	lea	edi, DWORD PTR [ebp-216]
	mov	ecx, 54					; 00000036H
	mov	eax, -858993460				; ccccccccH
	rep stosd
	pop	ecx
	mov	DWORD PTR _this$[ebp], ecx

; 2230 : 		if (!_Built)

	movzx	eax, BYTE PTR __Built$[ebp]
	test	eax, eax
	jne	SHORT $LN2@Tidy
	jmp	SHORT $LN3@Tidy
$LN2@Tidy:

; 2231 : 			;
; 2232 : 		else if (this->_BUF_SIZE <= this->_Myres())

	mov	ecx, DWORD PTR _this$[ebp]
	call	?_Myres@?$_String_alloc@U?$_String_base_types@DV?$allocator@D@std@@@std@@@std@@QAEAAIXZ ; std::_String_alloc<std::_String_base_types<char,std::allocator<char> > >::_Myres
	cmp	DWORD PTR [eax], 16			; 00000010H
	jb	SHORT $LN3@Tidy

; 2233 : 			{	// copy any leftovers to small buffer and deallocate
; 2234 : 			pointer _Ptr = this->_Bx()._Ptr;

	mov	ecx, DWORD PTR _this$[ebp]
	call	?_Bx@?$_String_alloc@U?$_String_base_types@DV?$allocator@D@std@@@std@@@std@@QAEAAT_Bxty@?$_String_val@U?$_Simple_types@D@std@@@2@XZ ; std::_String_alloc<std::_String_base_types<char,std::allocator<char> > >::_Bx
	mov	eax, DWORD PTR [eax]
	mov	DWORD PTR __Ptr$1[ebp], eax

; 2235 : 			this->_Getal().destroy(&this->_Bx()._Ptr);

	mov	ecx, DWORD PTR _this$[ebp]
	call	?_Bx@?$_String_alloc@U?$_String_base_types@DV?$allocator@D@std@@@std@@@std@@QAEAAT_Bxty@?$_String_val@U?$_Simple_types@D@std@@@2@XZ ; std::_String_alloc<std::_String_base_types<char,std::allocator<char> > >::_Bx
	push	eax
	mov	ecx, DWORD PTR _this$[ebp]
	call	?_Getal@?$_String_alloc@U?$_String_base_types@DV?$allocator@D@std@@@std@@@std@@QAEAAU?$_Wrap_alloc@V?$allocator@D@std@@@2@XZ ; std::_String_alloc<std::_String_base_types<char,std::allocator<char> > >::_Getal
	mov	ecx, eax
	call	??$destroy@PAD@?$_Wrap_alloc@V?$allocator@D@std@@@std@@QAEXPAPAD@Z ; std::_Wrap_alloc<std::allocator<char> >::destroy<char *>

; 2236 : 			if (0 < _Newsize)

	cmp	DWORD PTR __Newsize$[ebp], 0
	jbe	SHORT $LN5@Tidy

; 2237 : 				_Traits::copy(this->_Bx()._Buf,

	mov	eax, DWORD PTR __Newsize$[ebp]
	push	eax
	mov	ecx, DWORD PTR __Ptr$1[ebp]
	push	ecx
	call	??$addressof@D@std@@YAPADAAD@Z		; std::addressof<char>
	add	esp, 4
	push	eax
	mov	ecx, DWORD PTR _this$[ebp]
	call	?_Bx@?$_String_alloc@U?$_String_base_types@DV?$allocator@D@std@@@std@@@std@@QAEAAT_Bxty@?$_String_val@U?$_Simple_types@D@std@@@2@XZ ; std::_String_alloc<std::_String_base_types<char,std::allocator<char> > >::_Bx
	push	eax
	call	?copy@?$char_traits@D@std@@SAPADPADPBDI@Z ; std::char_traits<char>::copy
	add	esp, 12					; 0000000cH
$LN5@Tidy:

; 2238 : 					_STD addressof(*_Ptr), _Newsize);
; 2239 : 			this->_Getal().deallocate(_Ptr, this->_Myres() + 1);

	mov	ecx, DWORD PTR _this$[ebp]
	call	?_Myres@?$_String_alloc@U?$_String_base_types@DV?$allocator@D@std@@@std@@@std@@QAEAAIXZ ; std::_String_alloc<std::_String_base_types<char,std::allocator<char> > >::_Myres
	mov	eax, DWORD PTR [eax]
	add	eax, 1
	push	eax
	mov	ecx, DWORD PTR __Ptr$1[ebp]
	push	ecx
	mov	ecx, DWORD PTR _this$[ebp]
	call	?_Getal@?$_String_alloc@U?$_String_base_types@DV?$allocator@D@std@@@std@@@std@@QAEAAU?$_Wrap_alloc@V?$allocator@D@std@@@2@XZ ; std::_String_alloc<std::_String_base_types<char,std::allocator<char> > >::_Getal
	mov	ecx, eax
	call	?deallocate@?$_Wrap_alloc@V?$allocator@D@std@@@std@@QAEXPADI@Z ; std::_Wrap_alloc<std::allocator<char> >::deallocate
$LN3@Tidy:

; 2240 : 			}
; 2241 : 		this->_Myres() = this->_BUF_SIZE - 1;

	mov	ecx, DWORD PTR _this$[ebp]
	call	?_Myres@?$_String_alloc@U?$_String_base_types@DV?$allocator@D@std@@@std@@@std@@QAEAAIXZ ; std::_String_alloc<std::_String_base_types<char,std::allocator<char> > >::_Myres
	mov	DWORD PTR [eax], 15			; 0000000fH

; 2242 : 		_Eos(_Newsize);

	mov	eax, DWORD PTR __Newsize$[ebp]
	push	eax
	mov	ecx, DWORD PTR _this$[ebp]
	call	?_Eos@?$basic_string@DU?$char_traits@D@std@@V?$allocator@D@2@@std@@QAEXI@Z ; std::basic_string<char,std::char_traits<char>,std::allocator<char> >::_Eos

; 2243 : 		}

	pop	edi
	pop	esi
	pop	ebx
	add	esp, 216				; 000000d8H
	cmp	ebp, esp
	call	__RTC_CheckEsp
	mov	esp, ebp
	pop	ebp
	ret	8
?_Tidy@?$basic_string@DU?$char_traits@D@std@@V?$allocator@D@2@@std@@QAEX_NI@Z ENDP ; std::basic_string<char,std::char_traits<char>,std::allocator<char> >::_Tidy
_TEXT	ENDS
; Function compile flags: /Odtp /RTCsu /ZI
; File d:\appdata\vsp\vc\include\xstring
;	COMDAT ?_Inside@?$basic_string@DU?$char_traits@D@std@@V?$allocator@D@2@@std@@QAE_NPBD@Z
_TEXT	SEGMENT
_this$ = -8						; size = 4
__Ptr$ = 8						; size = 4
?_Inside@?$basic_string@DU?$char_traits@D@std@@V?$allocator@D@2@@std@@QAE_NPBD@Z PROC ; std::basic_string<char,std::char_traits<char>,std::allocator<char> >::_Inside, COMDAT
; _this$ = ecx

; 2219 : 		{	// test if _Ptr points inside string

	push	ebp
	mov	ebp, esp
	sub	esp, 204				; 000000ccH
	push	ebx
	push	esi
	push	edi
	push	ecx
	lea	edi, DWORD PTR [ebp-204]
	mov	ecx, 51					; 00000033H
	mov	eax, -858993460				; ccccccccH
	rep stosd
	pop	ecx
	mov	DWORD PTR _this$[ebp], ecx

; 2220 : 		if (_Ptr == 0 || _Ptr < this->_Myptr()
; 2221 : 			|| this->_Myptr() + this->_Mysize() <= _Ptr)

	cmp	DWORD PTR __Ptr$[ebp], 0
	je	SHORT $LN4@Inside
	mov	ecx, DWORD PTR _this$[ebp]
	call	?_Myptr@?$_String_alloc@U?$_String_base_types@DV?$allocator@D@std@@@std@@@std@@QAEPADXZ ; std::_String_alloc<std::_String_base_types<char,std::allocator<char> > >::_Myptr
	cmp	DWORD PTR __Ptr$[ebp], eax
	jb	SHORT $LN4@Inside
	mov	ecx, DWORD PTR _this$[ebp]
	call	?_Myptr@?$_String_alloc@U?$_String_base_types@DV?$allocator@D@std@@@std@@@std@@QAEPADXZ ; std::_String_alloc<std::_String_base_types<char,std::allocator<char> > >::_Myptr
	mov	esi, eax
	mov	ecx, DWORD PTR _this$[ebp]
	call	?_Mysize@?$_String_alloc@U?$_String_base_types@DV?$allocator@D@std@@@std@@@std@@QAEAAIXZ ; std::_String_alloc<std::_String_base_types<char,std::allocator<char> > >::_Mysize
	add	esi, DWORD PTR [eax]
	cmp	esi, DWORD PTR __Ptr$[ebp]
	ja	SHORT $LN2@Inside
$LN4@Inside:

; 2222 : 			return (false);	// don't ask

	xor	al, al
	jmp	SHORT $LN1@Inside

; 2223 : 		else

	jmp	SHORT $LN1@Inside
$LN2@Inside:

; 2224 : 			return (true);

	mov	al, 1
$LN1@Inside:

; 2225 : 		}

	pop	edi
	pop	esi
	pop	ebx
	add	esp, 204				; 000000ccH
	cmp	ebp, esp
	call	__RTC_CheckEsp
	mov	esp, ebp
	pop	ebp
	ret	4
?_Inside@?$basic_string@DU?$char_traits@D@std@@V?$allocator@D@2@@std@@QAE_NPBD@Z ENDP ; std::basic_string<char,std::char_traits<char>,std::allocator<char> >::_Inside
_TEXT	ENDS
; Function compile flags: /Odtp /RTCsu /ZI
; File d:\appdata\vsp\vc\include\xstring
;	COMDAT ?_Grow@?$basic_string@DU?$char_traits@D@std@@V?$allocator@D@2@@std@@QAE_NI_N@Z
_TEXT	SEGMENT
tv140 = -208						; size = 4
tv133 = -208						; size = 4
_this$ = -8						; size = 4
__Newsize$ = 8						; size = 4
__Trim$ = 12						; size = 1
?_Grow@?$basic_string@DU?$char_traits@D@std@@V?$allocator@D@2@@std@@QAE_NI_N@Z PROC ; std::basic_string<char,std::char_traits<char>,std::allocator<char> >::_Grow, COMDAT
; _this$ = ecx

; 2205 : 		{	// ensure buffer is big enough, trim to size if _Trim is true

	push	ebp
	mov	ebp, esp
	sub	esp, 208				; 000000d0H
	push	ebx
	push	esi
	push	edi
	push	ecx
	lea	edi, DWORD PTR [ebp-208]
	mov	ecx, 52					; 00000034H
	mov	eax, -858993460				; ccccccccH
	rep stosd
	pop	ecx
	mov	DWORD PTR _this$[ebp], ecx

; 2206 : 		if (max_size() < _Newsize)

	mov	ecx, DWORD PTR _this$[ebp]
	call	?max_size@?$basic_string@DU?$char_traits@D@std@@V?$allocator@D@2@@std@@QBEIXZ ; std::basic_string<char,std::char_traits<char>,std::allocator<char> >::max_size
	cmp	eax, DWORD PTR __Newsize$[ebp]
	jae	SHORT $LN2@Grow

; 2207 : 			_Xlen();	// result too long

	mov	ecx, DWORD PTR _this$[ebp]
	call	?_Xlen@?$basic_string@DU?$char_traits@D@std@@V?$allocator@D@2@@std@@QBEXXZ ; std::basic_string<char,std::char_traits<char>,std::allocator<char> >::_Xlen
$LN2@Grow:

; 2208 : 		if (this->_Myres() < _Newsize)

	mov	ecx, DWORD PTR _this$[ebp]
	call	?_Myres@?$_String_alloc@U?$_String_base_types@DV?$allocator@D@std@@@std@@@std@@QAEAAIXZ ; std::_String_alloc<std::_String_base_types<char,std::allocator<char> > >::_Myres
	mov	eax, DWORD PTR [eax]
	cmp	eax, DWORD PTR __Newsize$[ebp]
	jae	SHORT $LN3@Grow

; 2209 : 			_Copy(_Newsize, this->_Mysize());	// reallocate to grow

	mov	ecx, DWORD PTR _this$[ebp]
	call	?_Mysize@?$_String_alloc@U?$_String_base_types@DV?$allocator@D@std@@@std@@@std@@QAEAAIXZ ; std::_String_alloc<std::_String_base_types<char,std::allocator<char> > >::_Mysize
	mov	eax, DWORD PTR [eax]
	push	eax
	mov	ecx, DWORD PTR __Newsize$[ebp]
	push	ecx
	mov	ecx, DWORD PTR _this$[ebp]
	call	?_Copy@?$basic_string@DU?$char_traits@D@std@@V?$allocator@D@2@@std@@QAEXII@Z ; std::basic_string<char,std::char_traits<char>,std::allocator<char> >::_Copy
	jmp	SHORT $LN4@Grow
$LN3@Grow:

; 2210 : 		else if (_Trim && _Newsize < this->_BUF_SIZE)

	movzx	eax, BYTE PTR __Trim$[ebp]
	test	eax, eax
	je	SHORT $LN5@Grow
	cmp	DWORD PTR __Newsize$[ebp], 16		; 00000010H
	jae	SHORT $LN5@Grow

; 2211 : 			_Tidy(true,	// copy and deallocate if trimming to small string

	mov	ecx, DWORD PTR _this$[ebp]
	call	?_Mysize@?$_String_alloc@U?$_String_base_types@DV?$allocator@D@std@@@std@@@std@@QAEAAIXZ ; std::_String_alloc<std::_String_base_types<char,std::allocator<char> > >::_Mysize
	mov	ecx, DWORD PTR __Newsize$[ebp]
	cmp	ecx, DWORD PTR [eax]
	jae	SHORT $LN9@Grow
	mov	edx, DWORD PTR __Newsize$[ebp]
	mov	DWORD PTR tv133[ebp], edx
	jmp	SHORT $LN10@Grow
$LN9@Grow:
	mov	ecx, DWORD PTR _this$[ebp]
	call	?_Mysize@?$_String_alloc@U?$_String_base_types@DV?$allocator@D@std@@@std@@@std@@QAEAAIXZ ; std::_String_alloc<std::_String_base_types<char,std::allocator<char> > >::_Mysize
	mov	eax, DWORD PTR [eax]
	mov	DWORD PTR tv133[ebp], eax
$LN10@Grow:
	mov	ecx, DWORD PTR tv133[ebp]
	push	ecx
	push	1
	mov	ecx, DWORD PTR _this$[ebp]
	call	?_Tidy@?$basic_string@DU?$char_traits@D@std@@V?$allocator@D@2@@std@@QAEX_NI@Z ; std::basic_string<char,std::char_traits<char>,std::allocator<char> >::_Tidy
	jmp	SHORT $LN4@Grow
$LN5@Grow:

; 2212 : 				_Newsize < this->_Mysize() ? _Newsize : this->_Mysize());
; 2213 : 		else if (_Newsize == 0)

	cmp	DWORD PTR __Newsize$[ebp], 0
	jne	SHORT $LN4@Grow

; 2214 : 			_Eos(0);	// new size is zero, just null terminate

	push	0
	mov	ecx, DWORD PTR _this$[ebp]
	call	?_Eos@?$basic_string@DU?$char_traits@D@std@@V?$allocator@D@2@@std@@QAEXI@Z ; std::basic_string<char,std::char_traits<char>,std::allocator<char> >::_Eos
$LN4@Grow:

; 2215 : 		return (0 < _Newsize);	// return true only if more work to do

	cmp	DWORD PTR __Newsize$[ebp], 0
	jbe	SHORT $LN11@Grow
	mov	DWORD PTR tv140[ebp], 1
	jmp	SHORT $LN12@Grow
$LN11@Grow:
	mov	DWORD PTR tv140[ebp], 0
$LN12@Grow:
	mov	al, BYTE PTR tv140[ebp]
$LN8@Grow:

; 2216 : 		}

	pop	edi
	pop	esi
	pop	ebx
	add	esp, 208				; 000000d0H
	cmp	ebp, esp
	call	__RTC_CheckEsp
	mov	esp, ebp
	pop	ebp
	ret	8
?_Grow@?$basic_string@DU?$char_traits@D@std@@V?$allocator@D@2@@std@@QAE_NI_N@Z ENDP ; std::basic_string<char,std::char_traits<char>,std::allocator<char> >::_Grow
_TEXT	ENDS
; Function compile flags: /Odtp /RTCsu /ZI
; File d:\appdata\vsp\vc\include\xstring
;	COMDAT ?_Eos@?$basic_string@DU?$char_traits@D@std@@V?$allocator@D@2@@std@@QAEXI@Z
_TEXT	SEGMENT
$T1 = -209						; size = 1
_this$ = -8						; size = 4
__Newsize$ = 8						; size = 4
?_Eos@?$basic_string@DU?$char_traits@D@std@@V?$allocator@D@2@@std@@QAEXI@Z PROC ; std::basic_string<char,std::char_traits<char>,std::allocator<char> >::_Eos, COMDAT
; _this$ = ecx

; 2199 : 		{	// set new length and null terminator

	push	ebp
	mov	ebp, esp
	sub	esp, 216				; 000000d8H
	push	ebx
	push	esi
	push	edi
	push	ecx
	lea	edi, DWORD PTR [ebp-216]
	mov	ecx, 54					; 00000036H
	mov	eax, -858993460				; ccccccccH
	rep stosd
	pop	ecx
	mov	DWORD PTR _this$[ebp], ecx

; 2200 : 		_Traits::assign(this->_Myptr()[this->_Mysize() = _Newsize], _Elem());

	mov	BYTE PTR $T1[ebp], 0
	mov	ecx, DWORD PTR _this$[ebp]
	call	?_Mysize@?$_String_alloc@U?$_String_base_types@DV?$allocator@D@std@@@std@@@std@@QAEAAIXZ ; std::_String_alloc<std::_String_base_types<char,std::allocator<char> > >::_Mysize
	mov	ecx, DWORD PTR __Newsize$[ebp]
	mov	DWORD PTR [eax], ecx
	lea	edx, DWORD PTR $T1[ebp]
	push	edx
	mov	ecx, DWORD PTR _this$[ebp]
	call	?_Myptr@?$_String_alloc@U?$_String_base_types@DV?$allocator@D@std@@@std@@@std@@QAEPADXZ ; std::_String_alloc<std::_String_base_types<char,std::allocator<char> > >::_Myptr
	add	eax, DWORD PTR __Newsize$[ebp]
	push	eax
	call	?assign@?$char_traits@D@std@@SAXAADABD@Z ; std::char_traits<char>::assign
	add	esp, 8

; 2201 : 		}

	pop	edi
	pop	esi
	pop	ebx
	add	esp, 216				; 000000d8H
	cmp	ebp, esp
	call	__RTC_CheckEsp
	mov	esp, ebp
	pop	ebp
	ret	4
?_Eos@?$basic_string@DU?$char_traits@D@std@@V?$allocator@D@2@@std@@QAEXI@Z ENDP ; std::basic_string<char,std::char_traits<char>,std::allocator<char> >::_Eos
_TEXT	ENDS
; Function compile flags: /Odtp /RTCsu /ZI
; File d:\appdata\vsp\vc\include\xstring
;	COMDAT ?_Copy@?$basic_string@DU?$char_traits@D@std@@V?$allocator@D@2@@std@@QAEXII@Z
_TEXT	SEGMENT
tv213 = -252						; size = 4
tv212 = -252						; size = 4
__Ptr$ = -52						; size = 4
__Newres$ = -40						; size = 4
_this$ = -28						; size = 4
__$ArrayPad$ = -20					; size = 4
__$EHRec$ = -16						; size = 16
__Newsize$ = 8						; size = 4
__Oldlen$ = 12						; size = 4
?_Copy@?$basic_string@DU?$char_traits@D@std@@V?$allocator@D@2@@std@@QAEXII@Z PROC ; std::basic_string<char,std::char_traits<char>,std::allocator<char> >::_Copy, COMDAT
; _this$ = ecx

; 2164 : 		{	// copy _Oldlen elements to newly allocated buffer

	push	ebp
	mov	ebp, esp
	push	-1
	push	__ehhandler$?_Copy@?$basic_string@DU?$char_traits@D@std@@V?$allocator@D@2@@std@@QAEXII@Z
	mov	eax, DWORD PTR fs:0
	push	eax
	push	ecx
	sub	esp, 236				; 000000ecH
	push	ebx
	push	esi
	push	edi
	push	ecx
	lea	edi, DWORD PTR [ebp-252]
	mov	ecx, 59					; 0000003bH
	mov	eax, -858993460				; ccccccccH
	rep stosd
	pop	ecx
	mov	eax, DWORD PTR ___security_cookie
	xor	eax, ebp
	mov	DWORD PTR __$ArrayPad$[ebp], eax
	push	eax
	lea	eax, DWORD PTR __$EHRec$[ebp+4]
	mov	DWORD PTR fs:0, eax
	mov	DWORD PTR __$EHRec$[ebp], esp
	mov	DWORD PTR _this$[ebp], ecx

; 2165 : 		size_type _Newres = _Newsize | this->_ALLOC_MASK;

	mov	eax, DWORD PTR __Newsize$[ebp]
	or	eax, 15					; 0000000fH
	mov	DWORD PTR __Newres$[ebp], eax

; 2166 : 		if (max_size() < _Newres)

	mov	ecx, DWORD PTR _this$[ebp]
	call	?max_size@?$basic_string@DU?$char_traits@D@std@@V?$allocator@D@2@@std@@QBEIXZ ; std::basic_string<char,std::char_traits<char>,std::allocator<char> >::max_size
	cmp	eax, DWORD PTR __Newres$[ebp]
	jae	SHORT $LN2@Copy

; 2167 : 			_Newres = _Newsize;	// undo roundup if too big

	mov	eax, DWORD PTR __Newsize$[ebp]
	mov	DWORD PTR __Newres$[ebp], eax
	jmp	SHORT $LN3@Copy
$LN2@Copy:

; 2168 : 		else if (this->_Myres() / 2 <= _Newres / 3)

	mov	eax, DWORD PTR __Newres$[ebp]
	xor	edx, edx
	mov	ecx, 3
	div	ecx
	mov	esi, eax
	mov	ecx, DWORD PTR _this$[ebp]
	call	?_Myres@?$_String_alloc@U?$_String_base_types@DV?$allocator@D@std@@@std@@@std@@QAEAAIXZ ; std::_String_alloc<std::_String_base_types<char,std::allocator<char> > >::_Myres
	mov	edx, DWORD PTR [eax]
	shr	edx, 1
	cmp	edx, esi
	ja	SHORT $LN4@Copy
	jmp	SHORT $LN3@Copy
$LN4@Copy:

; 2169 : 			;
; 2170 : 		else if (this->_Myres() <= max_size() - this->_Myres() / 2)

	mov	ecx, DWORD PTR _this$[ebp]
	call	?_Myres@?$_String_alloc@U?$_String_base_types@DV?$allocator@D@std@@@std@@@std@@QAEAAIXZ ; std::_String_alloc<std::_String_base_types<char,std::allocator<char> > >::_Myres
	mov	esi, DWORD PTR [eax]
	shr	esi, 1
	mov	ecx, DWORD PTR _this$[ebp]
	call	?max_size@?$basic_string@DU?$char_traits@D@std@@V?$allocator@D@2@@std@@QBEIXZ ; std::basic_string<char,std::char_traits<char>,std::allocator<char> >::max_size
	mov	edi, eax
	sub	edi, esi
	mov	ecx, DWORD PTR _this$[ebp]
	call	?_Myres@?$_String_alloc@U?$_String_base_types@DV?$allocator@D@std@@@std@@@std@@QAEAAIXZ ; std::_String_alloc<std::_String_base_types<char,std::allocator<char> > >::_Myres
	cmp	DWORD PTR [eax], edi
	ja	SHORT $LN6@Copy

; 2171 : 			_Newres = this->_Myres()

	mov	ecx, DWORD PTR _this$[ebp]
	call	?_Myres@?$_String_alloc@U?$_String_base_types@DV?$allocator@D@std@@@std@@@std@@QAEAAIXZ ; std::_String_alloc<std::_String_base_types<char,std::allocator<char> > >::_Myres
	mov	esi, DWORD PTR [eax]
	shr	esi, 1
	mov	ecx, DWORD PTR _this$[ebp]
	call	?_Myres@?$_String_alloc@U?$_String_base_types@DV?$allocator@D@std@@@std@@@std@@QAEAAIXZ ; std::_String_alloc<std::_String_base_types<char,std::allocator<char> > >::_Myres
	add	esi, DWORD PTR [eax]
	mov	DWORD PTR __Newres$[ebp], esi

; 2172 : 				+ this->_Myres() / 2;	// grow exponentially if possible
; 2173 : 		else

	jmp	SHORT $LN3@Copy
$LN6@Copy:

; 2174 : 			_Newres = max_size();	// settle for max_size()

	mov	ecx, DWORD PTR _this$[ebp]
	call	?max_size@?$basic_string@DU?$char_traits@D@std@@V?$allocator@D@2@@std@@QBEIXZ ; std::basic_string<char,std::char_traits<char>,std::allocator<char> >::max_size
	mov	DWORD PTR __Newres$[ebp], eax
$LN3@Copy:

; 2175 : 
; 2176 : 		_Elem *_Ptr;
; 2177 : 		_TRY_BEGIN

	mov	DWORD PTR __$EHRec$[ebp+12], 0

; 2178 : 			_Ptr = this->_Getal().allocate(_Newres + 1);

	mov	eax, DWORD PTR __Newres$[ebp]
	add	eax, 1
	push	eax
	mov	ecx, DWORD PTR _this$[ebp]
	call	?_Getal@?$_String_alloc@U?$_String_base_types@DV?$allocator@D@std@@@std@@@std@@QAEAAU?$_Wrap_alloc@V?$allocator@D@std@@@2@XZ ; std::_String_alloc<std::_String_base_types<char,std::allocator<char> > >::_Getal
	mov	ecx, eax
	call	?allocate@?$_Wrap_alloc@V?$allocator@D@std@@@std@@QAEPADI@Z ; std::_Wrap_alloc<std::allocator<char> >::allocate
	mov	DWORD PTR tv212[ebp], eax
	mov	ecx, DWORD PTR tv212[ebp]
	mov	DWORD PTR __Ptr$[ebp], ecx
	jmp	SHORT $LN12@Copy
__catch$?_Copy@?$basic_string@DU?$char_traits@D@std@@V?$allocator@D@2@@std@@QAEXII@Z$0:

; 2179 : 		_CATCH_ALL

	mov	DWORD PTR __$EHRec$[ebp], esp

; 2180 : 			_Newres = _Newsize;	// allocation failed, undo roundup and retry

	mov	eax, DWORD PTR __Newsize$[ebp]
	mov	DWORD PTR __Newres$[ebp], eax

; 2181 : 			_TRY_BEGIN

	mov	BYTE PTR __$EHRec$[ebp+12], 2

; 2182 : 				_Ptr = this->_Getal().allocate(_Newres + 1);

	mov	eax, DWORD PTR __Newres$[ebp]
	add	eax, 1
	push	eax
	mov	ecx, DWORD PTR _this$[ebp]
	call	?_Getal@?$_String_alloc@U?$_String_base_types@DV?$allocator@D@std@@@std@@@std@@QAEAAU?$_Wrap_alloc@V?$allocator@D@std@@@2@XZ ; std::_String_alloc<std::_String_base_types<char,std::allocator<char> > >::_Getal
	mov	ecx, eax
	call	?allocate@?$_Wrap_alloc@V?$allocator@D@std@@@std@@QAEPADI@Z ; std::_Wrap_alloc<std::allocator<char> >::allocate
	mov	DWORD PTR tv213[ebp], eax
	mov	ecx, DWORD PTR tv213[ebp]
	mov	DWORD PTR __Ptr$[ebp], ecx
	jmp	SHORT $LN14@Copy
__catch$?_Copy@?$basic_string@DU?$char_traits@D@std@@V?$allocator@D@2@@std@@QAEXII@Z$1:

; 2183 : 			_CATCH_ALL
; 2184 : 			_Tidy(true);	// failed again, discard storage and reraise

	push	0
	push	1
	mov	ecx, DWORD PTR _this$[ebp]
	call	?_Tidy@?$basic_string@DU?$char_traits@D@std@@V?$allocator@D@2@@std@@QAEX_NI@Z ; std::basic_string<char,std::char_traits<char>,std::allocator<char> >::_Tidy

; 2185 : 			_RERAISE;

	push	0
	push	0
	call	__CxxThrowException@8

; 2186 : 			_CATCH_END

	mov	eax, $LN17@Copy
	ret	0
$LN14@Copy:
	mov	DWORD PTR __$EHRec$[ebp+12], 1
	jmp	SHORT __tryend$?_Copy@?$basic_string@DU?$char_traits@D@std@@V?$allocator@D@2@@std@@QAEXII@Z$2
$LN17@Copy:
	mov	DWORD PTR __$EHRec$[ebp+12], 1
__tryend$?_Copy@?$basic_string@DU?$char_traits@D@std@@V?$allocator@D@2@@std@@QAEXII@Z$2:

; 2187 : 		_CATCH_END

	mov	eax, $LN19@Copy
	ret	0
$LN12@Copy:
	mov	DWORD PTR __$EHRec$[ebp+12], -1
	jmp	SHORT __tryend$?_Copy@?$basic_string@DU?$char_traits@D@std@@V?$allocator@D@2@@std@@QAEXII@Z$3
$LN19@Copy:
	mov	DWORD PTR __$EHRec$[ebp+12], -1
__tryend$?_Copy@?$basic_string@DU?$char_traits@D@std@@V?$allocator@D@2@@std@@QAEXII@Z$3:

; 2188 : 
; 2189 : 		if (0 < _Oldlen)

	cmp	DWORD PTR __Oldlen$[ebp], 0
	jbe	SHORT $LN10@Copy

; 2190 : 			_Traits::copy(_Ptr, this->_Myptr(),

	mov	eax, DWORD PTR __Oldlen$[ebp]
	push	eax
	mov	ecx, DWORD PTR _this$[ebp]
	call	?_Myptr@?$_String_alloc@U?$_String_base_types@DV?$allocator@D@std@@@std@@@std@@QAEPADXZ ; std::_String_alloc<std::_String_base_types<char,std::allocator<char> > >::_Myptr
	push	eax
	mov	ecx, DWORD PTR __Ptr$[ebp]
	push	ecx
	call	?copy@?$char_traits@D@std@@SAPADPADPBDI@Z ; std::char_traits<char>::copy
	add	esp, 12					; 0000000cH
$LN10@Copy:

; 2191 : 				_Oldlen);	// copy existing elements
; 2192 : 		_Tidy(true);

	push	0
	push	1
	mov	ecx, DWORD PTR _this$[ebp]
	call	?_Tidy@?$basic_string@DU?$char_traits@D@std@@V?$allocator@D@2@@std@@QAEX_NI@Z ; std::basic_string<char,std::char_traits<char>,std::allocator<char> >::_Tidy

; 2193 : 		this->_Getal().construct(&this->_Bx()._Ptr, _Ptr);

	lea	eax, DWORD PTR __Ptr$[ebp]
	push	eax
	mov	ecx, DWORD PTR _this$[ebp]
	call	?_Bx@?$_String_alloc@U?$_String_base_types@DV?$allocator@D@std@@@std@@@std@@QAEAAT_Bxty@?$_String_val@U?$_Simple_types@D@std@@@2@XZ ; std::_String_alloc<std::_String_base_types<char,std::allocator<char> > >::_Bx
	push	eax
	mov	ecx, DWORD PTR _this$[ebp]
	call	?_Getal@?$_String_alloc@U?$_String_base_types@DV?$allocator@D@std@@@std@@@std@@QAEAAU?$_Wrap_alloc@V?$allocator@D@std@@@2@XZ ; std::_String_alloc<std::_String_base_types<char,std::allocator<char> > >::_Getal
	mov	ecx, eax
	call	??$construct@PADAAPAD@?$_Wrap_alloc@V?$allocator@D@std@@@std@@QAEXPAPADAAPAD@Z ; std::_Wrap_alloc<std::allocator<char> >::construct<char *,char * &>

; 2194 : 		this->_Myres() = _Newres;

	mov	ecx, DWORD PTR _this$[ebp]
	call	?_Myres@?$_String_alloc@U?$_String_base_types@DV?$allocator@D@std@@@std@@@std@@QAEAAIXZ ; std::_String_alloc<std::_String_base_types<char,std::allocator<char> > >::_Myres
	mov	ecx, DWORD PTR __Newres$[ebp]
	mov	DWORD PTR [eax], ecx

; 2195 : 		_Eos(_Oldlen);

	mov	eax, DWORD PTR __Oldlen$[ebp]
	push	eax
	mov	ecx, DWORD PTR _this$[ebp]
	call	?_Eos@?$basic_string@DU?$char_traits@D@std@@V?$allocator@D@2@@std@@QAEXI@Z ; std::basic_string<char,std::char_traits<char>,std::allocator<char> >::_Eos
$LN11@Copy:

; 2196 : 		}

	push	edx
	mov	ecx, ebp
	push	eax
	lea	edx, DWORD PTR $LN23@Copy
	call	@_RTC_CheckStackVars@8
	pop	eax
	pop	edx
	mov	ecx, DWORD PTR __$EHRec$[ebp+4]
	mov	DWORD PTR fs:0, ecx
	pop	ecx
	pop	edi
	pop	esi
	pop	ebx
	mov	ecx, DWORD PTR __$ArrayPad$[ebp]
	xor	ecx, ebp
	call	@__security_check_cookie@4
	add	esp, 252				; 000000fcH
	cmp	ebp, esp
	call	__RTC_CheckEsp
	mov	esp, ebp
	pop	ebp
	ret	8
$LN23@Copy:
	DD	1
	DD	$LN22@Copy
$LN22@Copy:
	DD	-52					; ffffffccH
	DD	4
	DD	$LN20@Copy
$LN20@Copy:
	DB	95					; 0000005fH
	DB	80					; 00000050H
	DB	116					; 00000074H
	DB	114					; 00000072H
	DB	0
_TEXT	ENDS
;	COMDAT text$x
text$x	SEGMENT
__ehhandler$?_Copy@?$basic_string@DU?$char_traits@D@std@@V?$allocator@D@2@@std@@QAEXII@Z:
	mov	edx, DWORD PTR [esp+8]
	lea	eax, DWORD PTR [edx+12]
	mov	ecx, DWORD PTR [edx-256]
	xor	ecx, eax
	call	@__security_check_cookie@4
	mov	ecx, DWORD PTR [edx-8]
	xor	ecx, eax
	call	@__security_check_cookie@4
	mov	eax, OFFSET __ehfuncinfo$?_Copy@?$basic_string@DU?$char_traits@D@std@@V?$allocator@D@2@@std@@QAEXII@Z
	jmp	___CxxFrameHandler3
text$x	ENDS
?_Copy@?$basic_string@DU?$char_traits@D@std@@V?$allocator@D@2@@std@@QAEXII@Z ENDP ; std::basic_string<char,std::char_traits<char>,std::allocator<char> >::_Copy
; Function compile flags: /Odtp /RTCsu /ZI
; File d:\appdata\vsp\vc\include\xstring
;	COMDAT ?_Chassign@?$basic_string@DU?$char_traits@D@std@@V?$allocator@D@2@@std@@QAEXIID@Z
_TEXT	SEGMENT
_this$ = -8						; size = 4
__Off$ = 8						; size = 4
__Count$ = 12						; size = 4
__Ch$ = 16						; size = 1
?_Chassign@?$basic_string@DU?$char_traits@D@std@@V?$allocator@D@2@@std@@QAEXIID@Z PROC ; std::basic_string<char,std::char_traits<char>,std::allocator<char> >::_Chassign, COMDAT
; _this$ = ecx

; 2156 : 		{	// assign _Count copies of _Ch beginning at _Off

	push	ebp
	mov	ebp, esp
	sub	esp, 204				; 000000ccH
	push	ebx
	push	esi
	push	edi
	push	ecx
	lea	edi, DWORD PTR [ebp-204]
	mov	ecx, 51					; 00000033H
	mov	eax, -858993460				; ccccccccH
	rep stosd
	pop	ecx
	mov	DWORD PTR _this$[ebp], ecx

; 2157 : 		if (_Count == 1)

	cmp	DWORD PTR __Count$[ebp], 1
	jne	SHORT $LN2@Chassign

; 2158 : 			_Traits::assign(*(this->_Myptr() + _Off), _Ch);

	lea	eax, DWORD PTR __Ch$[ebp]
	push	eax
	mov	ecx, DWORD PTR _this$[ebp]
	call	?_Myptr@?$_String_alloc@U?$_String_base_types@DV?$allocator@D@std@@@std@@@std@@QAEPADXZ ; std::_String_alloc<std::_String_base_types<char,std::allocator<char> > >::_Myptr
	add	eax, DWORD PTR __Off$[ebp]
	push	eax
	call	?assign@?$char_traits@D@std@@SAXAADABD@Z ; std::char_traits<char>::assign
	add	esp, 8

; 2159 : 		else

	jmp	SHORT $LN1@Chassign
$LN2@Chassign:

; 2160 : 			_Traits::assign(this->_Myptr() + _Off, _Count, _Ch);

	movzx	eax, BYTE PTR __Ch$[ebp]
	push	eax
	mov	ecx, DWORD PTR __Count$[ebp]
	push	ecx
	mov	ecx, DWORD PTR _this$[ebp]
	call	?_Myptr@?$_String_alloc@U?$_String_base_types@DV?$allocator@D@std@@@std@@@std@@QAEPADXZ ; std::_String_alloc<std::_String_base_types<char,std::allocator<char> > >::_Myptr
	add	eax, DWORD PTR __Off$[ebp]
	push	eax
	call	?assign@?$char_traits@D@std@@SAPADPADID@Z ; std::char_traits<char>::assign
	add	esp, 12					; 0000000cH
$LN1@Chassign:

; 2161 : 		}

	pop	edi
	pop	esi
	pop	ebx
	add	esp, 204				; 000000ccH
	cmp	ebp, esp
	call	__RTC_CheckEsp
	mov	esp, ebp
	pop	ebp
	ret	12					; 0000000cH
?_Chassign@?$basic_string@DU?$char_traits@D@std@@V?$allocator@D@2@@std@@QAEXIID@Z ENDP ; std::basic_string<char,std::char_traits<char>,std::allocator<char> >::_Chassign
_TEXT	ENDS
; Function compile flags: /Odtp /RTCsu /ZI
; File d:\appdata\vsp\vc\include\xstring
;	COMDAT ?resize@?$basic_string@DU?$char_traits@D@std@@V?$allocator@D@2@@std@@QAEXID@Z
_TEXT	SEGMENT
_this$ = -8						; size = 4
__Newsize$ = 8						; size = 4
__Ch$ = 12						; size = 1
?resize@?$basic_string@DU?$char_traits@D@std@@V?$allocator@D@2@@std@@QAEXID@Z PROC ; std::basic_string<char,std::char_traits<char>,std::allocator<char> >::resize, COMDAT
; _this$ = ecx

; 1765 : 		{	// determine new length, padding with _Ch elements as needed

	push	ebp
	mov	ebp, esp
	sub	esp, 204				; 000000ccH
	push	ebx
	push	esi
	push	edi
	push	ecx
	lea	edi, DWORD PTR [ebp-204]
	mov	ecx, 51					; 00000033H
	mov	eax, -858993460				; ccccccccH
	rep stosd
	pop	ecx
	mov	DWORD PTR _this$[ebp], ecx

; 1766 : 		if (_Newsize <= this->_Mysize())

	mov	ecx, DWORD PTR _this$[ebp]
	call	?_Mysize@?$_String_alloc@U?$_String_base_types@DV?$allocator@D@std@@@std@@@std@@QAEAAIXZ ; std::_String_alloc<std::_String_base_types<char,std::allocator<char> > >::_Mysize
	mov	ecx, DWORD PTR __Newsize$[ebp]
	cmp	ecx, DWORD PTR [eax]
	ja	SHORT $LN2@resize

; 1767 : 			_Eos(_Newsize);

	mov	eax, DWORD PTR __Newsize$[ebp]
	push	eax
	mov	ecx, DWORD PTR _this$[ebp]
	call	?_Eos@?$basic_string@DU?$char_traits@D@std@@V?$allocator@D@2@@std@@QAEXI@Z ; std::basic_string<char,std::char_traits<char>,std::allocator<char> >::_Eos

; 1768 : 		else

	jmp	SHORT $LN1@resize
$LN2@resize:

; 1769 : 			append(_Newsize - this->_Mysize(), _Ch);

	movzx	eax, BYTE PTR __Ch$[ebp]
	push	eax
	mov	ecx, DWORD PTR _this$[ebp]
	call	?_Mysize@?$_String_alloc@U?$_String_base_types@DV?$allocator@D@std@@@std@@@std@@QAEAAIXZ ; std::_String_alloc<std::_String_base_types<char,std::allocator<char> > >::_Mysize
	mov	ecx, DWORD PTR __Newsize$[ebp]
	sub	ecx, DWORD PTR [eax]
	push	ecx
	mov	ecx, DWORD PTR _this$[ebp]
	call	?append@?$basic_string@DU?$char_traits@D@std@@V?$allocator@D@2@@std@@QAEAAV12@ID@Z ; std::basic_string<char,std::char_traits<char>,std::allocator<char> >::append
$LN1@resize:

; 1770 : 		}

	pop	edi
	pop	esi
	pop	ebx
	add	esp, 204				; 000000ccH
	cmp	ebp, esp
	call	__RTC_CheckEsp
	mov	esp, ebp
	pop	ebp
	ret	8
?resize@?$basic_string@DU?$char_traits@D@std@@V?$allocator@D@2@@std@@QAEXID@Z ENDP ; std::basic_string<char,std::char_traits<char>,std::allocator<char> >::resize
_TEXT	ENDS
; Function compile flags: /Odtp /RTCsu /ZI
; File d:\appdata\vsp\vc\include\xstring
;	COMDAT ?resize@?$basic_string@DU?$char_traits@D@std@@V?$allocator@D@2@@std@@QAEXI@Z
_TEXT	SEGMENT
_this$ = -8						; size = 4
__Newsize$ = 8						; size = 4
?resize@?$basic_string@DU?$char_traits@D@std@@V?$allocator@D@2@@std@@QAEXI@Z PROC ; std::basic_string<char,std::char_traits<char>,std::allocator<char> >::resize, COMDAT
; _this$ = ecx

; 1760 : 		{	// determine new length, padding with null elements as needed

	push	ebp
	mov	ebp, esp
	sub	esp, 204				; 000000ccH
	push	ebx
	push	esi
	push	edi
	push	ecx
	lea	edi, DWORD PTR [ebp-204]
	mov	ecx, 51					; 00000033H
	mov	eax, -858993460				; ccccccccH
	rep stosd
	pop	ecx
	mov	DWORD PTR _this$[ebp], ecx

; 1761 : 		resize(_Newsize, _Elem());

	push	0
	mov	eax, DWORD PTR __Newsize$[ebp]
	push	eax
	mov	ecx, DWORD PTR _this$[ebp]
	call	?resize@?$basic_string@DU?$char_traits@D@std@@V?$allocator@D@2@@std@@QAEXID@Z ; std::basic_string<char,std::char_traits<char>,std::allocator<char> >::resize

; 1762 : 		}

	pop	edi
	pop	esi
	pop	ebx
	add	esp, 204				; 000000ccH
	cmp	ebp, esp
	call	__RTC_CheckEsp
	mov	esp, ebp
	pop	ebp
	ret	4
?resize@?$basic_string@DU?$char_traits@D@std@@V?$allocator@D@2@@std@@QAEXI@Z ENDP ; std::basic_string<char,std::char_traits<char>,std::allocator<char> >::resize
_TEXT	ENDS
; Function compile flags: /Odtp /RTCsu /ZI
; File d:\appdata\vsp\vc\include\xstring
;	COMDAT ?max_size@?$basic_string@DU?$char_traits@D@std@@V?$allocator@D@2@@std@@QBEIXZ
_TEXT	SEGMENT
tv75 = -232						; size = 4
$T1 = -221						; size = 1
__Num$ = -20						; size = 4
_this$ = -8						; size = 4
?max_size@?$basic_string@DU?$char_traits@D@std@@V?$allocator@D@2@@std@@QBEIXZ PROC ; std::basic_string<char,std::char_traits<char>,std::allocator<char> >::max_size, COMDAT
; _this$ = ecx

; 1754 : 		{	// return maximum possible length of sequence

	push	ebp
	mov	ebp, esp
	sub	esp, 232				; 000000e8H
	push	ebx
	push	esi
	push	edi
	push	ecx
	lea	edi, DWORD PTR [ebp-232]
	mov	ecx, 58					; 0000003aH
	mov	eax, -858993460				; ccccccccH
	rep stosd
	pop	ecx
	mov	DWORD PTR _this$[ebp], ecx

; 1755 : 		size_type _Num = this->_Getal().max_size();

	movzx	eax, BYTE PTR $T1[ebp]
	push	eax
	mov	ecx, DWORD PTR _this$[ebp]
	call	?_Getal@?$_String_alloc@U?$_String_base_types@DV?$allocator@D@std@@@std@@@std@@QBEABU?$_Wrap_alloc@V?$allocator@D@std@@@2@XZ ; std::_String_alloc<std::_String_base_types<char,std::allocator<char> > >::_Getal
	mov	ecx, eax
	call	?max_size@?$_Wrap_alloc@V?$allocator@D@std@@@std@@QBEIU_Nil@2@@Z ; std::_Wrap_alloc<std::allocator<char> >::max_size
	mov	DWORD PTR __Num$[ebp], eax

; 1756 : 		return (_Num <= 1 ? 1 : _Num - 1);

	cmp	DWORD PTR __Num$[ebp], 1
	ja	SHORT $LN3@max_size
	mov	DWORD PTR tv75[ebp], 1
	jmp	SHORT $LN4@max_size
$LN3@max_size:
	mov	eax, DWORD PTR __Num$[ebp]
	sub	eax, 1
	mov	DWORD PTR tv75[ebp], eax
$LN4@max_size:
	mov	eax, DWORD PTR tv75[ebp]

; 1757 : 		}

	pop	edi
	pop	esi
	pop	ebx
	add	esp, 232				; 000000e8H
	cmp	ebp, esp
	call	__RTC_CheckEsp
	mov	esp, ebp
	pop	ebp
	ret	0
?max_size@?$basic_string@DU?$char_traits@D@std@@V?$allocator@D@2@@std@@QBEIXZ ENDP ; std::basic_string<char,std::char_traits<char>,std::allocator<char> >::max_size
_TEXT	ENDS
; Function compile flags: /Odtp /RTCsu /ZI
; File d:\appdata\vsp\vc\include\xstring
;	COMDAT ?size@?$basic_string@DU?$char_traits@D@std@@V?$allocator@D@2@@std@@QBEIXZ
_TEXT	SEGMENT
_this$ = -8						; size = 4
?size@?$basic_string@DU?$char_traits@D@std@@V?$allocator@D@2@@std@@QBEIXZ PROC ; std::basic_string<char,std::char_traits<char>,std::allocator<char> >::size, COMDAT
; _this$ = ecx

; 1749 : 		{	// return length of sequence

	push	ebp
	mov	ebp, esp
	sub	esp, 204				; 000000ccH
	push	ebx
	push	esi
	push	edi
	push	ecx
	lea	edi, DWORD PTR [ebp-204]
	mov	ecx, 51					; 00000033H
	mov	eax, -858993460				; ccccccccH
	rep stosd
	pop	ecx
	mov	DWORD PTR _this$[ebp], ecx

; 1750 : 		return (this->_Mysize());

	mov	ecx, DWORD PTR _this$[ebp]
	call	?_Mysize@?$_String_alloc@U?$_String_base_types@DV?$allocator@D@std@@@std@@@std@@QBEABIXZ ; std::_String_alloc<std::_String_base_types<char,std::allocator<char> > >::_Mysize
	mov	eax, DWORD PTR [eax]

; 1751 : 		}

	pop	edi
	pop	esi
	pop	ebx
	add	esp, 204				; 000000ccH
	cmp	ebp, esp
	call	__RTC_CheckEsp
	mov	esp, ebp
	pop	ebp
	ret	0
?size@?$basic_string@DU?$char_traits@D@std@@V?$allocator@D@2@@std@@QBEIXZ ENDP ; std::basic_string<char,std::char_traits<char>,std::allocator<char> >::size
_TEXT	ENDS
; Function compile flags: /Odtp /RTCsu /ZI
; File d:\appdata\vsp\vc\include\xstring
;	COMDAT ?c_str@?$basic_string@DU?$char_traits@D@std@@V?$allocator@D@2@@std@@QBEPBDXZ
_TEXT	SEGMENT
_this$ = -20						; size = 4
__$EHRec$ = -12						; size = 12
?c_str@?$basic_string@DU?$char_traits@D@std@@V?$allocator@D@2@@std@@QBEPBDXZ PROC ; std::basic_string<char,std::char_traits<char>,std::allocator<char> >::c_str, COMDAT
; _this$ = ecx

; 1734 : 		{	// return pointer to null-terminated nonmutable array

	push	ebp
	mov	ebp, esp
	push	-1
	push	__ehhandler$?c_str@?$basic_string@DU?$char_traits@D@std@@V?$allocator@D@2@@std@@QBEPBDXZ
	mov	eax, DWORD PTR fs:0
	push	eax
	sub	esp, 204				; 000000ccH
	push	ebx
	push	esi
	push	edi
	push	ecx
	lea	edi, DWORD PTR [ebp-216]
	mov	ecx, 51					; 00000033H
	mov	eax, -858993460				; ccccccccH
	rep stosd
	pop	ecx
	mov	eax, DWORD PTR ___security_cookie
	xor	eax, ebp
	push	eax
	lea	eax, DWORD PTR __$EHRec$[ebp]
	mov	DWORD PTR fs:0, eax
	mov	DWORD PTR _this$[ebp], ecx

; 1735 : 		return (this->_Myptr());

	mov	ecx, DWORD PTR _this$[ebp]
	call	?_Myptr@?$_String_alloc@U?$_String_base_types@DV?$allocator@D@std@@@std@@@std@@QBEPBDXZ ; std::_String_alloc<std::_String_base_types<char,std::allocator<char> > >::_Myptr

; 1736 : 		}

	mov	ecx, DWORD PTR __$EHRec$[ebp]
	mov	DWORD PTR fs:0, ecx
	pop	ecx
	pop	edi
	pop	esi
	pop	ebx
	add	esp, 216				; 000000d8H
	cmp	ebp, esp
	call	__RTC_CheckEsp
	mov	esp, ebp
	pop	ebp
	ret	0
_TEXT	ENDS
;	COMDAT text$x
text$x	SEGMENT
__ehhandler$?c_str@?$basic_string@DU?$char_traits@D@std@@V?$allocator@D@2@@std@@QBEPBDXZ:
	mov	edx, DWORD PTR [esp+8]
	lea	eax, DWORD PTR [edx+12]
	mov	ecx, DWORD PTR [edx-220]
	xor	ecx, eax
	call	@__security_check_cookie@4
	mov	eax, OFFSET __ehfuncinfo$?c_str@?$basic_string@DU?$char_traits@D@std@@V?$allocator@D@2@@std@@QBEPBDXZ
	jmp	___CxxFrameHandler3
text$x	ENDS
?c_str@?$basic_string@DU?$char_traits@D@std@@V?$allocator@D@2@@std@@QBEPBDXZ ENDP ; std::basic_string<char,std::char_traits<char>,std::allocator<char> >::c_str
; Function compile flags: /Odtp /RTCsu /ZI
; File d:\appdata\vsp\vc\include\xstring
;	COMDAT ??A?$basic_string@DU?$char_traits@D@std@@V?$allocator@D@2@@std@@QAEAADI@Z
_TEXT	SEGMENT
_this$ = -8						; size = 4
__Off$ = 8						; size = 4
??A?$basic_string@DU?$char_traits@D@std@@V?$allocator@D@2@@std@@QAEAADI@Z PROC ; std::basic_string<char,std::char_traits<char>,std::allocator<char> >::operator[], COMDAT
; _this$ = ecx

; 1678 : 		{	// subscript mutable sequence

	push	ebp
	mov	ebp, esp
	sub	esp, 204				; 000000ccH
	push	ebx
	push	esi
	push	edi
	push	ecx
	lea	edi, DWORD PTR [ebp-204]
	mov	ecx, 51					; 00000033H
	mov	eax, -858993460				; ccccccccH
	rep stosd
	pop	ecx
	mov	DWORD PTR _this$[ebp], ecx

; 1679 :  #if _ITERATOR_DEBUG_LEVEL == 2
; 1680 : 		if (this->_Mysize() < _Off)	// sic

	mov	ecx, DWORD PTR _this$[ebp]
	call	?_Mysize@?$_String_alloc@U?$_String_base_types@DV?$allocator@D@std@@@std@@@std@@QAEAAIXZ ; std::_String_alloc<std::_String_base_types<char,std::allocator<char> > >::_Mysize
	mov	eax, DWORD PTR [eax]
	cmp	eax, DWORD PTR __Off$[ebp]
	jae	SHORT $LN2@operator

; 1681 : 			_DEBUG_ERROR("string subscript out of range");

	mov	esi, esp
	push	1681					; 00000691H
	push	OFFSET ??_C@_1EE@PIAPABGP@?$AAd?$AA?3?$AA?2?$AAa?$AAp?$AAp?$AAd?$AAa?$AAt?$AAa?$AA?2?$AAv?$AAs?$AAp?$AA?2?$AAv?$AAc?$AA?2?$AAi?$AAn?$AAc?$AAl?$AAu?$AAd?$AAe?$AA?2?$AAx?$AAs?$AAt?$AAr?$AAi?$AAn@
	push	OFFSET ??_C@_1DM@GMPLOCPK@?$AAs?$AAt?$AAr?$AAi?$AAn?$AAg?$AA?5?$AAs?$AAu?$AAb?$AAs?$AAc?$AAr?$AAi?$AAp?$AAt?$AA?5?$AAo?$AAu?$AAt?$AA?5?$AAo?$AAf?$AA?5?$AAr?$AAa?$AAn?$AAg?$AAe?$AA?$AA@
	call	DWORD PTR __imp_?_Debug_message@std@@YAXPB_W0I@Z
	add	esp, 12					; 0000000cH
	cmp	esi, esp
	call	__RTC_CheckEsp
$LN2@operator:

; 1682 : 
; 1683 :  #elif _ITERATOR_DEBUG_LEVEL == 1
; 1684 : 		_SCL_SECURE_VALIDATE_RANGE(_Off <= this->_Mysize());	// sic
; 1685 :  #endif /* _ITERATOR_DEBUG_LEVEL == 2 */
; 1686 : 
; 1687 : 		return (this->_Myptr()[_Off]);

	mov	ecx, DWORD PTR _this$[ebp]
	call	?_Myptr@?$_String_alloc@U?$_String_base_types@DV?$allocator@D@std@@@std@@@std@@QAEPADXZ ; std::_String_alloc<std::_String_base_types<char,std::allocator<char> > >::_Myptr
	add	eax, DWORD PTR __Off$[ebp]

; 1688 : 		}

	pop	edi
	pop	esi
	pop	ebx
	add	esp, 204				; 000000ccH
	cmp	ebp, esp
	call	__RTC_CheckEsp
	mov	esp, ebp
	pop	ebp
	ret	4
??A?$basic_string@DU?$char_traits@D@std@@V?$allocator@D@2@@std@@QAEAADI@Z ENDP ; std::basic_string<char,std::char_traits<char>,std::allocator<char> >::operator[]
_TEXT	ENDS
; Function compile flags: /Odtp /RTCsu /ZI
; File d:\appdata\vsp\vc\include\xstring
;	COMDAT ?erase@?$basic_string@DU?$char_traits@D@std@@V?$allocator@D@2@@std@@QAEAAV12@II@Z
_TEXT	SEGMENT
__Newsize$1 = -32					; size = 4
__Ptr$2 = -20						; size = 4
_this$ = -8						; size = 4
__Off$ = 8						; size = 4
__Count$ = 12						; size = 4
?erase@?$basic_string@DU?$char_traits@D@std@@V?$allocator@D@2@@std@@QAEAAV12@II@Z PROC ; std::basic_string<char,std::char_traits<char>,std::allocator<char> >::erase, COMDAT
; _this$ = ecx

; 1345 : 		{	// erase elements [_Off, _Off + _Count)

	push	ebp
	mov	ebp, esp
	sub	esp, 228				; 000000e4H
	push	ebx
	push	esi
	push	edi
	push	ecx
	lea	edi, DWORD PTR [ebp-228]
	mov	ecx, 57					; 00000039H
	mov	eax, -858993460				; ccccccccH
	rep stosd
	pop	ecx
	mov	DWORD PTR _this$[ebp], ecx

; 1346 : 		if (this->_Mysize() < _Off)

	mov	ecx, DWORD PTR _this$[ebp]
	call	?_Mysize@?$_String_alloc@U?$_String_base_types@DV?$allocator@D@std@@@std@@@std@@QAEAAIXZ ; std::_String_alloc<std::_String_base_types<char,std::allocator<char> > >::_Mysize
	mov	eax, DWORD PTR [eax]
	cmp	eax, DWORD PTR __Off$[ebp]
	jae	SHORT $LN2@erase

; 1347 : 			_Xran();	// _Off off end

	mov	ecx, DWORD PTR _this$[ebp]
	call	?_Xran@?$basic_string@DU?$char_traits@D@std@@V?$allocator@D@2@@std@@QBEXXZ ; std::basic_string<char,std::char_traits<char>,std::allocator<char> >::_Xran
$LN2@erase:

; 1348 : 		if (this->_Mysize() - _Off <= _Count)

	mov	ecx, DWORD PTR _this$[ebp]
	call	?_Mysize@?$_String_alloc@U?$_String_base_types@DV?$allocator@D@std@@@std@@@std@@QAEAAIXZ ; std::_String_alloc<std::_String_base_types<char,std::allocator<char> > >::_Mysize
	mov	eax, DWORD PTR [eax]
	sub	eax, DWORD PTR __Off$[ebp]
	cmp	eax, DWORD PTR __Count$[ebp]
	ja	SHORT $LN3@erase

; 1349 : 			_Eos(_Off);	// erase elements [_Off, ...)

	mov	eax, DWORD PTR __Off$[ebp]
	push	eax
	mov	ecx, DWORD PTR _this$[ebp]
	call	?_Eos@?$basic_string@DU?$char_traits@D@std@@V?$allocator@D@2@@std@@QAEXI@Z ; std::basic_string<char,std::char_traits<char>,std::allocator<char> >::_Eos
	jmp	SHORT $LN4@erase
$LN3@erase:

; 1350 : 		else if (0 < _Count)

	cmp	DWORD PTR __Count$[ebp], 0
	jbe	SHORT $LN4@erase

; 1351 : 			{	// move elements down
; 1352 : 			value_type *_Ptr = this->_Myptr() + _Off;

	mov	ecx, DWORD PTR _this$[ebp]
	call	?_Myptr@?$_String_alloc@U?$_String_base_types@DV?$allocator@D@std@@@std@@@std@@QAEPADXZ ; std::_String_alloc<std::_String_base_types<char,std::allocator<char> > >::_Myptr
	add	eax, DWORD PTR __Off$[ebp]
	mov	DWORD PTR __Ptr$2[ebp], eax

; 1353 : 			size_type _Newsize = this->_Mysize() - _Count;

	mov	ecx, DWORD PTR _this$[ebp]
	call	?_Mysize@?$_String_alloc@U?$_String_base_types@DV?$allocator@D@std@@@std@@@std@@QAEAAIXZ ; std::_String_alloc<std::_String_base_types<char,std::allocator<char> > >::_Mysize
	mov	eax, DWORD PTR [eax]
	sub	eax, DWORD PTR __Count$[ebp]
	mov	DWORD PTR __Newsize$1[ebp], eax

; 1354 : 			_Traits::move(_Ptr, _Ptr + _Count, _Newsize - _Off);

	mov	eax, DWORD PTR __Newsize$1[ebp]
	sub	eax, DWORD PTR __Off$[ebp]
	push	eax
	mov	ecx, DWORD PTR __Ptr$2[ebp]
	add	ecx, DWORD PTR __Count$[ebp]
	push	ecx
	mov	edx, DWORD PTR __Ptr$2[ebp]
	push	edx
	call	?move@?$char_traits@D@std@@SAPADPADPBDI@Z ; std::char_traits<char>::move
	add	esp, 12					; 0000000cH

; 1355 : 			_Eos(_Newsize);

	mov	eax, DWORD PTR __Newsize$1[ebp]
	push	eax
	mov	ecx, DWORD PTR _this$[ebp]
	call	?_Eos@?$basic_string@DU?$char_traits@D@std@@V?$allocator@D@2@@std@@QAEXI@Z ; std::basic_string<char,std::char_traits<char>,std::allocator<char> >::_Eos
$LN4@erase:

; 1356 : 			}
; 1357 : 		return (*this);

	mov	eax, DWORD PTR _this$[ebp]
$LN6@erase:

; 1358 : 		}

	pop	edi
	pop	esi
	pop	ebx
	add	esp, 228				; 000000e4H
	cmp	ebp, esp
	call	__RTC_CheckEsp
	mov	esp, ebp
	pop	ebp
	ret	8
?erase@?$basic_string@DU?$char_traits@D@std@@V?$allocator@D@2@@std@@QAEAAV12@II@Z ENDP ; std::basic_string<char,std::char_traits<char>,std::allocator<char> >::erase
_TEXT	ENDS
; Function compile flags: /Odtp /RTCsu /ZI
; File d:\appdata\vsp\vc\include\xstring
;	COMDAT ?erase@?$basic_string@DU?$char_traits@D@std@@V?$allocator@D@2@@std@@QAEAAV12@I@Z
_TEXT	SEGMENT
_this$ = -8						; size = 4
__Off$ = 8						; size = 4
?erase@?$basic_string@DU?$char_traits@D@std@@V?$allocator@D@2@@std@@QAEAAV12@I@Z PROC ; std::basic_string<char,std::char_traits<char>,std::allocator<char> >::erase, COMDAT
; _this$ = ecx

; 1337 : 		{	// erase elements [_Off, ...)

	push	ebp
	mov	ebp, esp
	sub	esp, 204				; 000000ccH
	push	ebx
	push	esi
	push	edi
	push	ecx
	lea	edi, DWORD PTR [ebp-204]
	mov	ecx, 51					; 00000033H
	mov	eax, -858993460				; ccccccccH
	rep stosd
	pop	ecx
	mov	DWORD PTR _this$[ebp], ecx

; 1338 : 		if (this->_Mysize() < _Off)

	mov	ecx, DWORD PTR _this$[ebp]
	call	?_Mysize@?$_String_alloc@U?$_String_base_types@DV?$allocator@D@std@@@std@@@std@@QAEAAIXZ ; std::_String_alloc<std::_String_base_types<char,std::allocator<char> > >::_Mysize
	mov	eax, DWORD PTR [eax]
	cmp	eax, DWORD PTR __Off$[ebp]
	jae	SHORT $LN2@erase

; 1339 : 			_Xran();	// _Off off end

	mov	ecx, DWORD PTR _this$[ebp]
	call	?_Xran@?$basic_string@DU?$char_traits@D@std@@V?$allocator@D@2@@std@@QBEXXZ ; std::basic_string<char,std::char_traits<char>,std::allocator<char> >::_Xran
$LN2@erase:

; 1340 : 		_Eos(_Off);

	mov	eax, DWORD PTR __Off$[ebp]
	push	eax
	mov	ecx, DWORD PTR _this$[ebp]
	call	?_Eos@?$basic_string@DU?$char_traits@D@std@@V?$allocator@D@2@@std@@QAEXI@Z ; std::basic_string<char,std::char_traits<char>,std::allocator<char> >::_Eos

; 1341 : 		return (*this);

	mov	eax, DWORD PTR _this$[ebp]
$LN3@erase:

; 1342 : 		}

	pop	edi
	pop	esi
	pop	ebx
	add	esp, 204				; 000000ccH
	cmp	ebp, esp
	call	__RTC_CheckEsp
	mov	esp, ebp
	pop	ebp
	ret	4
?erase@?$basic_string@DU?$char_traits@D@std@@V?$allocator@D@2@@std@@QAEAAV12@I@Z ENDP ; std::basic_string<char,std::char_traits<char>,std::allocator<char> >::erase
_TEXT	ENDS
; Function compile flags: /Odtp /RTCsu /ZI
; File d:\appdata\vsp\vc\include\xstring
;	COMDAT ?insert@?$basic_string@DU?$char_traits@D@std@@V?$allocator@D@2@@std@@QAEAAV12@IPBD@Z
_TEXT	SEGMENT
_this$ = -8						; size = 4
__Off$ = 8						; size = 4
__Ptr$ = 12						; size = 4
?insert@?$basic_string@DU?$char_traits@D@std@@V?$allocator@D@2@@std@@QAEAAV12@IPBD@Z PROC ; std::basic_string<char,std::char_traits<char>,std::allocator<char> >::insert, COMDAT
; _this$ = ecx

; 1267 : 		{	// insert [_Ptr, <null>) at _Off

	push	ebp
	mov	ebp, esp
	sub	esp, 204				; 000000ccH
	push	ebx
	push	esi
	push	edi
	push	ecx
	lea	edi, DWORD PTR [ebp-204]
	mov	ecx, 51					; 00000033H
	mov	eax, -858993460				; ccccccccH
	rep stosd
	pop	ecx
	mov	DWORD PTR _this$[ebp], ecx

; 1268 : 		_DEBUG_POINTER(_Ptr);

	push	1268					; 000004f4H
	push	OFFSET ??_C@_1EE@PIAPABGP@?$AAd?$AA?3?$AA?2?$AAa?$AAp?$AAp?$AAd?$AAa?$AAt?$AAa?$AA?2?$AAv?$AAs?$AAp?$AA?2?$AAv?$AAc?$AA?2?$AAi?$AAn?$AAc?$AAl?$AAu?$AAd?$AAe?$AA?2?$AAx?$AAs?$AAt?$AAr?$AAi?$AAn@
	mov	eax, DWORD PTR __Ptr$[ebp]
	push	eax
	call	??$_Debug_pointer@$$CBD@std@@YAXPBDPB_WI@Z ; std::_Debug_pointer<char const >
	add	esp, 12					; 0000000cH

; 1269 : 		return (insert(_Off, _Ptr, _Traits::length(_Ptr)));

	mov	eax, DWORD PTR __Ptr$[ebp]
	push	eax
	call	?length@?$char_traits@D@std@@SAIPBD@Z	; std::char_traits<char>::length
	add	esp, 4
	push	eax
	mov	ecx, DWORD PTR __Ptr$[ebp]
	push	ecx
	mov	edx, DWORD PTR __Off$[ebp]
	push	edx
	mov	ecx, DWORD PTR _this$[ebp]
	call	?insert@?$basic_string@DU?$char_traits@D@std@@V?$allocator@D@2@@std@@QAEAAV12@IPBDI@Z ; std::basic_string<char,std::char_traits<char>,std::allocator<char> >::insert

; 1270 : 		}

	pop	edi
	pop	esi
	pop	ebx
	add	esp, 204				; 000000ccH
	cmp	ebp, esp
	call	__RTC_CheckEsp
	mov	esp, ebp
	pop	ebp
	ret	8
?insert@?$basic_string@DU?$char_traits@D@std@@V?$allocator@D@2@@std@@QAEAAV12@IPBD@Z ENDP ; std::basic_string<char,std::char_traits<char>,std::allocator<char> >::insert
_TEXT	ENDS
; Function compile flags: /Odtp /RTCsu /ZI
; File d:\appdata\vsp\vc\include\xstring
;	COMDAT ?insert@?$basic_string@DU?$char_traits@D@std@@V?$allocator@D@2@@std@@QAEAAV12@IPBDI@Z
_TEXT	SEGMENT
tv68 = -217						; size = 1
__Num$ = -20						; size = 4
_this$ = -8						; size = 4
__Off$ = 8						; size = 4
__Ptr$ = 12						; size = 4
__Count$ = 16						; size = 4
?insert@?$basic_string@DU?$char_traits@D@std@@V?$allocator@D@2@@std@@QAEAAV12@IPBDI@Z PROC ; std::basic_string<char,std::char_traits<char>,std::allocator<char> >::insert, COMDAT
; _this$ = ecx

; 1245 : 		{	// insert [_Ptr, _Ptr + _Count) at _Off

	push	ebp
	mov	ebp, esp
	sub	esp, 220				; 000000dcH
	push	ebx
	push	esi
	push	edi
	push	ecx
	lea	edi, DWORD PTR [ebp-220]
	mov	ecx, 55					; 00000037H
	mov	eax, -858993460				; ccccccccH
	rep stosd
	pop	ecx
	mov	DWORD PTR _this$[ebp], ecx

; 1246 : 		_DEBUG_POINTER_IF(_Count != 0, _Ptr);

	cmp	DWORD PTR __Count$[ebp], 0
	je	SHORT $LN7@insert
	mov	BYTE PTR tv68[ebp], 1
	jmp	SHORT $LN8@insert
$LN7@insert:
	mov	BYTE PTR tv68[ebp], 0
$LN8@insert:
	push	1246					; 000004deH
	push	OFFSET ??_C@_1EE@PIAPABGP@?$AAd?$AA?3?$AA?2?$AAa?$AAp?$AAp?$AAd?$AAa?$AAt?$AAa?$AA?2?$AAv?$AAs?$AAp?$AA?2?$AAv?$AAc?$AA?2?$AAi?$AAn?$AAc?$AAl?$AAu?$AAd?$AAe?$AA?2?$AAx?$AAs?$AAt?$AAr?$AAi?$AAn@
	mov	eax, DWORD PTR __Ptr$[ebp]
	push	eax
	movzx	ecx, BYTE PTR tv68[ebp]
	push	ecx
	call	??$_Debug_pointer_if@$$CBD@std@@YAX_NPBDPB_WI@Z ; std::_Debug_pointer_if<char const >
	add	esp, 16					; 00000010H

; 1247 : 		if (_Inside(_Ptr))

	mov	eax, DWORD PTR __Ptr$[ebp]
	push	eax
	mov	ecx, DWORD PTR _this$[ebp]
	call	?_Inside@?$basic_string@DU?$char_traits@D@std@@V?$allocator@D@2@@std@@QAE_NPBD@Z ; std::basic_string<char,std::char_traits<char>,std::allocator<char> >::_Inside
	movzx	ecx, al
	test	ecx, ecx
	je	SHORT $LN2@insert

; 1248 : 			return (insert(_Off, *this,

	mov	eax, DWORD PTR __Count$[ebp]
	push	eax
	mov	ecx, DWORD PTR _this$[ebp]
	call	?_Myptr@?$_String_alloc@U?$_String_base_types@DV?$allocator@D@std@@@std@@@std@@QAEPADXZ ; std::_String_alloc<std::_String_base_types<char,std::allocator<char> > >::_Myptr
	mov	ecx, DWORD PTR __Ptr$[ebp]
	sub	ecx, eax
	push	ecx
	mov	edx, DWORD PTR _this$[ebp]
	push	edx
	mov	eax, DWORD PTR __Off$[ebp]
	push	eax
	mov	ecx, DWORD PTR _this$[ebp]
	call	?insert@?$basic_string@DU?$char_traits@D@std@@V?$allocator@D@2@@std@@QAEAAV12@IABV12@II@Z ; std::basic_string<char,std::char_traits<char>,std::allocator<char> >::insert
	jmp	$LN6@insert
$LN2@insert:

; 1249 : 				_Ptr - this->_Myptr(), _Count));	// substring
; 1250 : 		if (this->_Mysize() < _Off)

	mov	ecx, DWORD PTR _this$[ebp]
	call	?_Mysize@?$_String_alloc@U?$_String_base_types@DV?$allocator@D@std@@@std@@@std@@QAEAAIXZ ; std::_String_alloc<std::_String_base_types<char,std::allocator<char> > >::_Mysize
	mov	eax, DWORD PTR [eax]
	cmp	eax, DWORD PTR __Off$[ebp]
	jae	SHORT $LN3@insert

; 1251 : 			_Xran();	// _Off off end

	mov	ecx, DWORD PTR _this$[ebp]
	call	?_Xran@?$basic_string@DU?$char_traits@D@std@@V?$allocator@D@2@@std@@QBEXXZ ; std::basic_string<char,std::char_traits<char>,std::allocator<char> >::_Xran
$LN3@insert:

; 1252 : 		if (npos - this->_Mysize() <= _Count)

	mov	ecx, DWORD PTR _this$[ebp]
	call	?_Mysize@?$_String_alloc@U?$_String_base_types@DV?$allocator@D@std@@@std@@@std@@QAEAAIXZ ; std::_String_alloc<std::_String_base_types<char,std::allocator<char> > >::_Mysize
	or	ecx, -1
	sub	ecx, DWORD PTR [eax]
	cmp	ecx, DWORD PTR __Count$[ebp]
	ja	SHORT $LN4@insert

; 1253 : 			_Xlen();	// result too long

	mov	ecx, DWORD PTR _this$[ebp]
	call	?_Xlen@?$basic_string@DU?$char_traits@D@std@@V?$allocator@D@2@@std@@QBEXXZ ; std::basic_string<char,std::char_traits<char>,std::allocator<char> >::_Xlen
$LN4@insert:

; 1254 : 		size_type _Num;
; 1255 : 		if (0 < _Count && _Grow(_Num = this->_Mysize() + _Count))

	cmp	DWORD PTR __Count$[ebp], 0
	jbe	SHORT $LN5@insert
	mov	ecx, DWORD PTR _this$[ebp]
	call	?_Mysize@?$_String_alloc@U?$_String_base_types@DV?$allocator@D@std@@@std@@@std@@QAEAAIXZ ; std::_String_alloc<std::_String_base_types<char,std::allocator<char> > >::_Mysize
	mov	eax, DWORD PTR [eax]
	add	eax, DWORD PTR __Count$[ebp]
	mov	DWORD PTR __Num$[ebp], eax
	push	0
	mov	ecx, DWORD PTR __Num$[ebp]
	push	ecx
	mov	ecx, DWORD PTR _this$[ebp]
	call	?_Grow@?$basic_string@DU?$char_traits@D@std@@V?$allocator@D@2@@std@@QAE_NI_N@Z ; std::basic_string<char,std::char_traits<char>,std::allocator<char> >::_Grow
	movzx	edx, al
	test	edx, edx
	je	SHORT $LN5@insert

; 1256 : 			{	// make room and insert new stuff
; 1257 : 			_Traits::move(this->_Myptr() + _Off + _Count,

	mov	ecx, DWORD PTR _this$[ebp]
	call	?_Mysize@?$_String_alloc@U?$_String_base_types@DV?$allocator@D@std@@@std@@@std@@QAEAAIXZ ; std::_String_alloc<std::_String_base_types<char,std::allocator<char> > >::_Mysize
	mov	eax, DWORD PTR [eax]
	sub	eax, DWORD PTR __Off$[ebp]
	push	eax
	mov	ecx, DWORD PTR _this$[ebp]
	call	?_Myptr@?$_String_alloc@U?$_String_base_types@DV?$allocator@D@std@@@std@@@std@@QAEPADXZ ; std::_String_alloc<std::_String_base_types<char,std::allocator<char> > >::_Myptr
	add	eax, DWORD PTR __Off$[ebp]
	push	eax
	mov	ecx, DWORD PTR _this$[ebp]
	call	?_Myptr@?$_String_alloc@U?$_String_base_types@DV?$allocator@D@std@@@std@@@std@@QAEPADXZ ; std::_String_alloc<std::_String_base_types<char,std::allocator<char> > >::_Myptr
	add	eax, DWORD PTR __Off$[ebp]
	add	eax, DWORD PTR __Count$[ebp]
	push	eax
	call	?move@?$char_traits@D@std@@SAPADPADPBDI@Z ; std::char_traits<char>::move
	add	esp, 12					; 0000000cH

; 1258 : 				this->_Myptr() + _Off,
; 1259 : 				this->_Mysize() - _Off);	// empty out hole
; 1260 : 			_Traits::copy(this->_Myptr() + _Off, _Ptr, _Count);	// fill hole

	mov	eax, DWORD PTR __Count$[ebp]
	push	eax
	mov	ecx, DWORD PTR __Ptr$[ebp]
	push	ecx
	mov	ecx, DWORD PTR _this$[ebp]
	call	?_Myptr@?$_String_alloc@U?$_String_base_types@DV?$allocator@D@std@@@std@@@std@@QAEPADXZ ; std::_String_alloc<std::_String_base_types<char,std::allocator<char> > >::_Myptr
	add	eax, DWORD PTR __Off$[ebp]
	push	eax
	call	?copy@?$char_traits@D@std@@SAPADPADPBDI@Z ; std::char_traits<char>::copy
	add	esp, 12					; 0000000cH

; 1261 : 			_Eos(_Num);

	mov	eax, DWORD PTR __Num$[ebp]
	push	eax
	mov	ecx, DWORD PTR _this$[ebp]
	call	?_Eos@?$basic_string@DU?$char_traits@D@std@@V?$allocator@D@2@@std@@QAEXI@Z ; std::basic_string<char,std::char_traits<char>,std::allocator<char> >::_Eos
$LN5@insert:

; 1262 : 			}
; 1263 : 		return (*this);

	mov	eax, DWORD PTR _this$[ebp]
$LN6@insert:

; 1264 : 		}

	pop	edi
	pop	esi
	pop	ebx
	add	esp, 220				; 000000dcH
	cmp	ebp, esp
	call	__RTC_CheckEsp
	mov	esp, ebp
	pop	ebp
	ret	12					; 0000000cH
?insert@?$basic_string@DU?$char_traits@D@std@@V?$allocator@D@2@@std@@QAEAAV12@IPBDI@Z ENDP ; std::basic_string<char,std::char_traits<char>,std::allocator<char> >::insert
_TEXT	ENDS
; Function compile flags: /Odtp /RTCsu /ZI
; File d:\appdata\vsp\vc\include\xstring
;	COMDAT ?insert@?$basic_string@DU?$char_traits@D@std@@V?$allocator@D@2@@std@@QAEAAV12@IABV12@II@Z
_TEXT	SEGMENT
tv170 = -220						; size = 4
__Num$ = -20						; size = 4
_this$ = -8						; size = 4
__Off$ = 8						; size = 4
__Right$ = 12						; size = 4
__Roff$ = 16						; size = 4
__Count$ = 20						; size = 4
?insert@?$basic_string@DU?$char_traits@D@std@@V?$allocator@D@2@@std@@QAEAAV12@IABV12@II@Z PROC ; std::basic_string<char,std::char_traits<char>,std::allocator<char> >::insert, COMDAT
; _this$ = ecx

; 1217 : 		{	// insert _Right [_Roff, _Roff + _Count) at _Off

	push	ebp
	mov	ebp, esp
	sub	esp, 220				; 000000dcH
	push	ebx
	push	esi
	push	edi
	push	ecx
	lea	edi, DWORD PTR [ebp-220]
	mov	ecx, 55					; 00000037H
	mov	eax, -858993460				; ccccccccH
	rep stosd
	pop	ecx
	mov	DWORD PTR _this$[ebp], ecx

; 1218 : 		if (this->_Mysize() < _Off || _Right.size() < _Roff)

	mov	ecx, DWORD PTR _this$[ebp]
	call	?_Mysize@?$_String_alloc@U?$_String_base_types@DV?$allocator@D@std@@@std@@@std@@QAEAAIXZ ; std::_String_alloc<std::_String_base_types<char,std::allocator<char> > >::_Mysize
	mov	eax, DWORD PTR [eax]
	cmp	eax, DWORD PTR __Off$[ebp]
	jb	SHORT $LN3@insert
	mov	ecx, DWORD PTR __Right$[ebp]
	call	?size@?$basic_string@DU?$char_traits@D@std@@V?$allocator@D@2@@std@@QBEIXZ ; std::basic_string<char,std::char_traits<char>,std::allocator<char> >::size
	cmp	eax, DWORD PTR __Roff$[ebp]
	jae	SHORT $LN2@insert
$LN3@insert:

; 1219 : 			_Xran();	// _Off or _Roff off end

	mov	ecx, DWORD PTR _this$[ebp]
	call	?_Xran@?$basic_string@DU?$char_traits@D@std@@V?$allocator@D@2@@std@@QBEXXZ ; std::basic_string<char,std::char_traits<char>,std::allocator<char> >::_Xran
$LN2@insert:

; 1220 : 		size_type _Num = _Right.size() - _Roff;

	mov	ecx, DWORD PTR __Right$[ebp]
	call	?size@?$basic_string@DU?$char_traits@D@std@@V?$allocator@D@2@@std@@QBEIXZ ; std::basic_string<char,std::char_traits<char>,std::allocator<char> >::size
	sub	eax, DWORD PTR __Roff$[ebp]
	mov	DWORD PTR __Num$[ebp], eax

; 1221 : 		if (_Num < _Count)

	mov	eax, DWORD PTR __Num$[ebp]
	cmp	eax, DWORD PTR __Count$[ebp]
	jae	SHORT $LN4@insert

; 1222 : 			_Count = _Num;	// trim _Count to size

	mov	eax, DWORD PTR __Num$[ebp]
	mov	DWORD PTR __Count$[ebp], eax
$LN4@insert:

; 1223 : 		if (npos - this->_Mysize() <= _Count)

	mov	ecx, DWORD PTR _this$[ebp]
	call	?_Mysize@?$_String_alloc@U?$_String_base_types@DV?$allocator@D@std@@@std@@@std@@QAEAAIXZ ; std::_String_alloc<std::_String_base_types<char,std::allocator<char> > >::_Mysize
	or	ecx, -1
	sub	ecx, DWORD PTR [eax]
	cmp	ecx, DWORD PTR __Count$[ebp]
	ja	SHORT $LN5@insert

; 1224 : 			_Xlen();	// result too long

	mov	ecx, DWORD PTR _this$[ebp]
	call	?_Xlen@?$basic_string@DU?$char_traits@D@std@@V?$allocator@D@2@@std@@QBEXXZ ; std::basic_string<char,std::char_traits<char>,std::allocator<char> >::_Xlen
$LN5@insert:

; 1225 : 
; 1226 : 		if (0 < _Count && _Grow(_Num = this->_Mysize() + _Count))

	cmp	DWORD PTR __Count$[ebp], 0
	jbe	$LN6@insert
	mov	ecx, DWORD PTR _this$[ebp]
	call	?_Mysize@?$_String_alloc@U?$_String_base_types@DV?$allocator@D@std@@@std@@@std@@QAEAAIXZ ; std::_String_alloc<std::_String_base_types<char,std::allocator<char> > >::_Mysize
	mov	eax, DWORD PTR [eax]
	add	eax, DWORD PTR __Count$[ebp]
	mov	DWORD PTR __Num$[ebp], eax
	push	0
	mov	ecx, DWORD PTR __Num$[ebp]
	push	ecx
	mov	ecx, DWORD PTR _this$[ebp]
	call	?_Grow@?$basic_string@DU?$char_traits@D@std@@V?$allocator@D@2@@std@@QAE_NI_N@Z ; std::basic_string<char,std::char_traits<char>,std::allocator<char> >::_Grow
	movzx	edx, al
	test	edx, edx
	je	$LN6@insert

; 1227 : 			{	// make room and insert new stuff
; 1228 : 			_Traits::move(this->_Myptr() + _Off + _Count,

	mov	ecx, DWORD PTR _this$[ebp]
	call	?_Mysize@?$_String_alloc@U?$_String_base_types@DV?$allocator@D@std@@@std@@@std@@QAEAAIXZ ; std::_String_alloc<std::_String_base_types<char,std::allocator<char> > >::_Mysize
	mov	eax, DWORD PTR [eax]
	sub	eax, DWORD PTR __Off$[ebp]
	push	eax
	mov	ecx, DWORD PTR _this$[ebp]
	call	?_Myptr@?$_String_alloc@U?$_String_base_types@DV?$allocator@D@std@@@std@@@std@@QAEPADXZ ; std::_String_alloc<std::_String_base_types<char,std::allocator<char> > >::_Myptr
	add	eax, DWORD PTR __Off$[ebp]
	push	eax
	mov	ecx, DWORD PTR _this$[ebp]
	call	?_Myptr@?$_String_alloc@U?$_String_base_types@DV?$allocator@D@std@@@std@@@std@@QAEPADXZ ; std::_String_alloc<std::_String_base_types<char,std::allocator<char> > >::_Myptr
	add	eax, DWORD PTR __Off$[ebp]
	add	eax, DWORD PTR __Count$[ebp]
	push	eax
	call	?move@?$char_traits@D@std@@SAPADPADPBDI@Z ; std::char_traits<char>::move
	add	esp, 12					; 0000000cH

; 1229 : 				this->_Myptr() + _Off,
; 1230 : 				this->_Mysize() - _Off);	// empty out hole
; 1231 : 			if (this == &_Right)

	mov	eax, DWORD PTR _this$[ebp]
	cmp	eax, DWORD PTR __Right$[ebp]
	jne	SHORT $LN7@insert

; 1232 : 				_Traits::move(this->_Myptr() + _Off,

	mov	eax, DWORD PTR __Off$[ebp]
	cmp	eax, DWORD PTR __Roff$[ebp]
	jae	SHORT $LN10@insert
	mov	ecx, DWORD PTR __Roff$[ebp]
	add	ecx, DWORD PTR __Count$[ebp]
	mov	DWORD PTR tv170[ebp], ecx
	jmp	SHORT $LN11@insert
$LN10@insert:
	mov	edx, DWORD PTR __Roff$[ebp]
	mov	DWORD PTR tv170[ebp], edx
$LN11@insert:
	mov	eax, DWORD PTR __Count$[ebp]
	push	eax
	mov	ecx, DWORD PTR _this$[ebp]
	call	?_Myptr@?$_String_alloc@U?$_String_base_types@DV?$allocator@D@std@@@std@@@std@@QAEPADXZ ; std::_String_alloc<std::_String_base_types<char,std::allocator<char> > >::_Myptr
	add	eax, DWORD PTR tv170[ebp]
	push	eax
	mov	ecx, DWORD PTR _this$[ebp]
	call	?_Myptr@?$_String_alloc@U?$_String_base_types@DV?$allocator@D@std@@@std@@@std@@QAEPADXZ ; std::_String_alloc<std::_String_base_types<char,std::allocator<char> > >::_Myptr
	add	eax, DWORD PTR __Off$[ebp]
	push	eax
	call	?move@?$char_traits@D@std@@SAPADPADPBDI@Z ; std::char_traits<char>::move
	add	esp, 12					; 0000000cH

; 1233 : 					this->_Myptr() + (_Off < _Roff ? _Roff + _Count : _Roff),
; 1234 : 						_Count);	// substring
; 1235 : 			else

	jmp	SHORT $LN8@insert
$LN7@insert:

; 1236 : 				_Traits::copy(this->_Myptr() + _Off,

	mov	eax, DWORD PTR __Count$[ebp]
	push	eax
	mov	ecx, DWORD PTR __Right$[ebp]
	call	?_Myptr@?$_String_alloc@U?$_String_base_types@DV?$allocator@D@std@@@std@@@std@@QBEPBDXZ ; std::_String_alloc<std::_String_base_types<char,std::allocator<char> > >::_Myptr
	add	eax, DWORD PTR __Roff$[ebp]
	push	eax
	mov	ecx, DWORD PTR _this$[ebp]
	call	?_Myptr@?$_String_alloc@U?$_String_base_types@DV?$allocator@D@std@@@std@@@std@@QAEPADXZ ; std::_String_alloc<std::_String_base_types<char,std::allocator<char> > >::_Myptr
	add	eax, DWORD PTR __Off$[ebp]
	push	eax
	call	?copy@?$char_traits@D@std@@SAPADPADPBDI@Z ; std::char_traits<char>::copy
	add	esp, 12					; 0000000cH
$LN8@insert:

; 1237 : 					_Right._Myptr() + _Roff, _Count);	// fill hole
; 1238 : 			_Eos(_Num);

	mov	eax, DWORD PTR __Num$[ebp]
	push	eax
	mov	ecx, DWORD PTR _this$[ebp]
	call	?_Eos@?$basic_string@DU?$char_traits@D@std@@V?$allocator@D@2@@std@@QAEXI@Z ; std::basic_string<char,std::char_traits<char>,std::allocator<char> >::_Eos
$LN6@insert:

; 1239 : 			}
; 1240 : 		return (*this);

	mov	eax, DWORD PTR _this$[ebp]
$LN9@insert:

; 1241 : 		}

	pop	edi
	pop	esi
	pop	ebx
	add	esp, 220				; 000000dcH
	cmp	ebp, esp
	call	__RTC_CheckEsp
	mov	esp, ebp
	pop	ebp
	ret	16					; 00000010H
?insert@?$basic_string@DU?$char_traits@D@std@@V?$allocator@D@2@@std@@QAEAAV12@IABV12@II@Z ENDP ; std::basic_string<char,std::char_traits<char>,std::allocator<char> >::insert
_TEXT	ENDS
; Function compile flags: /Odtp /RTCsu /ZI
; File d:\appdata\vsp\vc\include\xstring
;	COMDAT ?assign@?$basic_string@DU?$char_traits@D@std@@V?$allocator@D@2@@std@@QAEAAV12@ID@Z
_TEXT	SEGMENT
_this$ = -8						; size = 4
__Count$ = 8						; size = 4
__Ch$ = 12						; size = 1
?assign@?$basic_string@DU?$char_traits@D@std@@V?$allocator@D@2@@std@@QAEAAV12@ID@Z PROC ; std::basic_string<char,std::char_traits<char>,std::allocator<char> >::assign, COMDAT
; _this$ = ecx

; 1180 : 		{	// assign _Count * _Ch

	push	ebp
	mov	ebp, esp
	sub	esp, 204				; 000000ccH
	push	ebx
	push	esi
	push	edi
	push	ecx
	lea	edi, DWORD PTR [ebp-204]
	mov	ecx, 51					; 00000033H
	mov	eax, -858993460				; ccccccccH
	rep stosd
	pop	ecx
	mov	DWORD PTR _this$[ebp], ecx

; 1181 : 		if (_Count == npos)

	mov	eax, DWORD PTR __Count$[ebp]
	cmp	eax, DWORD PTR ?npos@?$basic_string@DU?$char_traits@D@std@@V?$allocator@D@2@@std@@2IB ; std::basic_string<char,std::char_traits<char>,std::allocator<char> >::npos
	jne	SHORT $LN2@assign

; 1182 : 			_Xlen();	// result too long

	mov	ecx, DWORD PTR _this$[ebp]
	call	?_Xlen@?$basic_string@DU?$char_traits@D@std@@V?$allocator@D@2@@std@@QBEXXZ ; std::basic_string<char,std::char_traits<char>,std::allocator<char> >::_Xlen
$LN2@assign:

; 1183 : 
; 1184 : 		if (_Grow(_Count))

	push	0
	mov	eax, DWORD PTR __Count$[ebp]
	push	eax
	mov	ecx, DWORD PTR _this$[ebp]
	call	?_Grow@?$basic_string@DU?$char_traits@D@std@@V?$allocator@D@2@@std@@QAE_NI_N@Z ; std::basic_string<char,std::char_traits<char>,std::allocator<char> >::_Grow
	movzx	ecx, al
	test	ecx, ecx
	je	SHORT $LN3@assign

; 1185 : 			{	// make room and assign new stuff
; 1186 : 			_Chassign(0, _Count, _Ch);

	movzx	eax, BYTE PTR __Ch$[ebp]
	push	eax
	mov	ecx, DWORD PTR __Count$[ebp]
	push	ecx
	push	0
	mov	ecx, DWORD PTR _this$[ebp]
	call	?_Chassign@?$basic_string@DU?$char_traits@D@std@@V?$allocator@D@2@@std@@QAEXIID@Z ; std::basic_string<char,std::char_traits<char>,std::allocator<char> >::_Chassign

; 1187 : 			_Eos(_Count);

	mov	eax, DWORD PTR __Count$[ebp]
	push	eax
	mov	ecx, DWORD PTR _this$[ebp]
	call	?_Eos@?$basic_string@DU?$char_traits@D@std@@V?$allocator@D@2@@std@@QAEXI@Z ; std::basic_string<char,std::char_traits<char>,std::allocator<char> >::_Eos
$LN3@assign:

; 1188 : 			}
; 1189 : 		return (*this);

	mov	eax, DWORD PTR _this$[ebp]
$LN4@assign:

; 1190 : 		}

	pop	edi
	pop	esi
	pop	ebx
	add	esp, 204				; 000000ccH
	cmp	ebp, esp
	call	__RTC_CheckEsp
	mov	esp, ebp
	pop	ebp
	ret	8
?assign@?$basic_string@DU?$char_traits@D@std@@V?$allocator@D@2@@std@@QAEAAV12@ID@Z ENDP ; std::basic_string<char,std::char_traits<char>,std::allocator<char> >::assign
_TEXT	ENDS
; Function compile flags: /Odtp /RTCsu /ZI
; File d:\appdata\vsp\vc\include\xstring
;	COMDAT ?assign@?$basic_string@DU?$char_traits@D@std@@V?$allocator@D@2@@std@@QAEAAV12@PBD@Z
_TEXT	SEGMENT
_this$ = -8						; size = 4
__Ptr$ = 8						; size = 4
?assign@?$basic_string@DU?$char_traits@D@std@@V?$allocator@D@2@@std@@QAEAAV12@PBD@Z PROC ; std::basic_string<char,std::char_traits<char>,std::allocator<char> >::assign, COMDAT
; _this$ = ecx

; 1174 : 		{	// assign [_Ptr, <null>)

	push	ebp
	mov	ebp, esp
	sub	esp, 204				; 000000ccH
	push	ebx
	push	esi
	push	edi
	push	ecx
	lea	edi, DWORD PTR [ebp-204]
	mov	ecx, 51					; 00000033H
	mov	eax, -858993460				; ccccccccH
	rep stosd
	pop	ecx
	mov	DWORD PTR _this$[ebp], ecx

; 1175 : 		_DEBUG_POINTER(_Ptr);

	push	1175					; 00000497H
	push	OFFSET ??_C@_1EE@PIAPABGP@?$AAd?$AA?3?$AA?2?$AAa?$AAp?$AAp?$AAd?$AAa?$AAt?$AAa?$AA?2?$AAv?$AAs?$AAp?$AA?2?$AAv?$AAc?$AA?2?$AAi?$AAn?$AAc?$AAl?$AAu?$AAd?$AAe?$AA?2?$AAx?$AAs?$AAt?$AAr?$AAi?$AAn@
	mov	eax, DWORD PTR __Ptr$[ebp]
	push	eax
	call	??$_Debug_pointer@$$CBD@std@@YAXPBDPB_WI@Z ; std::_Debug_pointer<char const >
	add	esp, 12					; 0000000cH

; 1176 : 		return (assign(_Ptr, _Traits::length(_Ptr)));

	mov	eax, DWORD PTR __Ptr$[ebp]
	push	eax
	call	?length@?$char_traits@D@std@@SAIPBD@Z	; std::char_traits<char>::length
	add	esp, 4
	push	eax
	mov	ecx, DWORD PTR __Ptr$[ebp]
	push	ecx
	mov	ecx, DWORD PTR _this$[ebp]
	call	?assign@?$basic_string@DU?$char_traits@D@std@@V?$allocator@D@2@@std@@QAEAAV12@PBDI@Z ; std::basic_string<char,std::char_traits<char>,std::allocator<char> >::assign

; 1177 : 		}

	pop	edi
	pop	esi
	pop	ebx
	add	esp, 204				; 000000ccH
	cmp	ebp, esp
	call	__RTC_CheckEsp
	mov	esp, ebp
	pop	ebp
	ret	4
?assign@?$basic_string@DU?$char_traits@D@std@@V?$allocator@D@2@@std@@QAEAAV12@PBD@Z ENDP ; std::basic_string<char,std::char_traits<char>,std::allocator<char> >::assign
_TEXT	ENDS
; Function compile flags: /Odtp /RTCsu /ZI
; File d:\appdata\vsp\vc\include\xstring
;	COMDAT ?assign@?$basic_string@DU?$char_traits@D@std@@V?$allocator@D@2@@std@@QAEAAV12@PBDI@Z
_TEXT	SEGMENT
tv68 = -205						; size = 1
_this$ = -8						; size = 4
__Ptr$ = 8						; size = 4
__Count$ = 12						; size = 4
?assign@?$basic_string@DU?$char_traits@D@std@@V?$allocator@D@2@@std@@QAEAAV12@PBDI@Z PROC ; std::basic_string<char,std::char_traits<char>,std::allocator<char> >::assign, COMDAT
; _this$ = ecx

; 1159 : 		{	// assign [_Ptr, _Ptr + _Count)

	push	ebp
	mov	ebp, esp
	sub	esp, 208				; 000000d0H
	push	ebx
	push	esi
	push	edi
	push	ecx
	lea	edi, DWORD PTR [ebp-208]
	mov	ecx, 52					; 00000034H
	mov	eax, -858993460				; ccccccccH
	rep stosd
	pop	ecx
	mov	DWORD PTR _this$[ebp], ecx

; 1160 : 		_DEBUG_POINTER_IF(_Count != 0, _Ptr);

	cmp	DWORD PTR __Count$[ebp], 0
	je	SHORT $LN5@assign
	mov	BYTE PTR tv68[ebp], 1
	jmp	SHORT $LN6@assign
$LN5@assign:
	mov	BYTE PTR tv68[ebp], 0
$LN6@assign:
	push	1160					; 00000488H
	push	OFFSET ??_C@_1EE@PIAPABGP@?$AAd?$AA?3?$AA?2?$AAa?$AAp?$AAp?$AAd?$AAa?$AAt?$AAa?$AA?2?$AAv?$AAs?$AAp?$AA?2?$AAv?$AAc?$AA?2?$AAi?$AAn?$AAc?$AAl?$AAu?$AAd?$AAe?$AA?2?$AAx?$AAs?$AAt?$AAr?$AAi?$AAn@
	mov	eax, DWORD PTR __Ptr$[ebp]
	push	eax
	movzx	ecx, BYTE PTR tv68[ebp]
	push	ecx
	call	??$_Debug_pointer_if@$$CBD@std@@YAX_NPBDPB_WI@Z ; std::_Debug_pointer_if<char const >
	add	esp, 16					; 00000010H

; 1161 : 		if (_Inside(_Ptr))

	mov	eax, DWORD PTR __Ptr$[ebp]
	push	eax
	mov	ecx, DWORD PTR _this$[ebp]
	call	?_Inside@?$basic_string@DU?$char_traits@D@std@@V?$allocator@D@2@@std@@QAE_NPBD@Z ; std::basic_string<char,std::char_traits<char>,std::allocator<char> >::_Inside
	movzx	ecx, al
	test	ecx, ecx
	je	SHORT $LN2@assign

; 1162 : 			return (assign(*this,

	mov	eax, DWORD PTR __Count$[ebp]
	push	eax
	mov	ecx, DWORD PTR _this$[ebp]
